 bcrypt_lib

 Timestamp is 5e2d1214 (Sun Jan 26 09:44:12 2020)

 Preferred load address is 0000000180000000

 Start         Length     Name                   Class
 0001:00000000 000182d0H .text$mn                CODE
 0001:000182d0 00000020H .text$mn$00             CODE
 0001:000182f0 00000250H .text$x                 CODE
 0002:00000000 00000258H .idata$5                DATA
 0002:00000258 00000010H .00cfg                  DATA
 0002:00000268 00000008H .CRT$XCA                DATA
 0002:00000270 00000008H .CRT$XCU                DATA
 0002:00000278 00000008H .CRT$XCZ                DATA
 0002:00000280 00000008H .CRT$XIA                DATA
 0002:00000288 00000018H .CRT$XIC                DATA
 0002:000002a0 00000008H .CRT$XIZ                DATA
 0002:000002a8 00000008H .CRT$XPA                DATA
 0002:000002b0 00000010H .CRT$XPX                DATA
 0002:000002c0 00000008H .CRT$XPXA               DATA
 0002:000002c8 00000008H .CRT$XPZ                DATA
 0002:000002d0 00000008H .CRT$XTA                DATA
 0002:000002d8 00000008H .CRT$XTZ                DATA
 0002:000002e0 00000000H .gfids$y                DATA
 0002:000002e0 00009930H .rdata                  DATA
 0002:00009c10 000002fcH .rdata$r                DATA
 0002:00009f0c 000003e4H .rdata$zzzdbg           DATA
 0002:0000a2f0 00000008H .rtc$IAA                DATA
 0002:0000a2f8 00000008H .rtc$IZZ                DATA
 0002:0000a300 00000008H .rtc$TAA                DATA
 0002:0000a308 00000008H .rtc$TZZ                DATA
 0002:0000a310 00001370H .xdata                  DATA
 0002:0000b680 0000017cH .xdata$x                DATA
 0002:0000b7fc 00000020H .didat$2                DATA
 0002:0000b81c 00000024H .didat$3                DATA
 0002:0000b840 00000160H .didat$4                DATA
 0002:0000b9a0 00000c38H .didat$6                DATA
 0002:0000c5d8 00000168H .didat$7                DATA
 0002:0000c740 00000058H .edata                  DATA
 0002:0000c798 00000014H .idata$2                DATA
 0002:0000c7ac 00000014H .idata$3                DATA
 0002:0000c7c0 00000258H .idata$4                DATA
 0002:0000ca18 0000057aH .idata$6                DATA
 0003:00000000 00000990H .data                   DATA
 0003:00000990 000000f0H .data$r                 DATA
 0003:00000a80 00000160H .didat$5                DATA
 0003:00000be0 00001210H .bss                    DATA
 0004:00000000 000016bcH .pdata                  DATA
 0005:00000000 00000060H .rsrc$01                DATA
 0005:00000060 00000180H .rsrc$02                DATA

  Address         Publics by Value              Rva+Base               Lib:Object

 0000:00000000       __hybrid_code_map_count    0000000000000000     <absolute>
 0000:00000000       __hybrid_code_map          0000000000000000     <absolute>
 0000:00000000       __guard_iat_count          0000000000000000     <absolute>
 0000:00000000       __guard_longjmp_count      0000000000000000     <absolute>
 0000:00000000       __volatile_metadata        0000000000000000     <absolute>
 0000:00000000       __guard_longjmp_table      0000000000000000     <absolute>
 0000:00000000       __guard_iat_table          0000000000000000     <absolute>
 0000:00000000       __guard_fids_count         0000000000000000     <absolute>
 0000:00000000       ___safe_se_handler_count   0000000000000000     <absolute>
 0000:00000000       __enclave_config           0000000000000000     <absolute>
 0000:00000000       ___safe_se_handler_table   0000000000000000     <absolute>
 0000:00000000       __guard_fids_table         0000000000000000     <absolute>
 0000:00000000       __hybrid_auxiliary_iat     0000000000000000     <absolute>
 0000:00000000       __dynamic_value_reloc_table 0000000000000000     <absolute>
 0000:00000100       __guard_flags              0000000000000100     <absolute>
 0000:00000000       __ImageBase                0000000180000000     <linker-defined>
 0001:00000000       ?Blowfish_encipher@@YAXPEAUBlowfishContext@@PEAI1@Z 0000000180001000 f   blowfish.obj
 0001:000004b0       ?Blowfish_expand0state@@YAXPEAUBlowfishContext@@PEBEG@Z 00000001800014b0 f   blowfish.obj
 0001:000005d0       ?Blowfish_expandstate@@YAXPEAUBlowfishContext@@PEBEG1G@Z 00000001800015d0 f   blowfish.obj
 0001:000007e0       __local_stdio_printf_options 00000001800017e0 f i bcrypt.obj
 0001:000007f0       _snprintf                  00000001800017f0 f i bcrypt.obj
 0001:00000850       ?bcrypt@@YAXPEBD0PEAD@Z    0000000180001850 f   bcrypt.obj
 0001:000013f0       ?ThrowError@Nan@@YAXPEBD@Z 00000001800023f0 f i bcrypt_node.obj
 0001:00001480       ?ThrowTypeError@Nan@@YAXPEBD@Z 0000000180002480 f i bcrypt_node.obj
 0001:00001510       ??0Utf8String@Nan@@QEAA@V?$Local@VValue@v8@@@v8@@@Z 0000000180002510 f i bcrypt_node.obj
 0001:00001640       ?Call@Callback@Nan@@QEBA?AV?$MaybeLocal@VValue@v8@@@v8@@HQEAV?$Local@VValue@v8@@@4@PEAVAsyncResource@2@@Z 0000000180002640 f i bcrypt_node.obj
 0001:00001750       ??0AsyncWorker@Nan@@QEAA@PEAVCallback@1@PEBD@Z 0000000180002750 f i bcrypt_node.obj
 0001:000018d0       ??1AsyncWorker@Nan@@UEAA@XZ 00000001800028d0 f i bcrypt_node.obj
 0001:000019a0       ?WorkComplete@AsyncWorker@Nan@@UEAAXXZ 00000001800029a0 f i bcrypt_node.obj
 0001:00001a30       ?Destroy@AsyncWorker@Nan@@UEAAXXZ 0000000180002a30 f i bcrypt_node.obj
 0001:00001a50       ?HandleOKCallback@AsyncWorker@Nan@@MEAAXXZ 0000000180002a50 f i bcrypt_node.obj
 0001:00001ab0       ?HandleErrorCallback@AsyncWorker@Nan@@MEAAXXZ 0000000180002ab0 f i bcrypt_node.obj
 0001:00001c20       ??_GAsyncWorker@Nan@@UEAAPEAXI@Z 0000000180002c20 f i bcrypt_node.obj
 0001:00001c20       ??_EAsyncWorker@Nan@@UEAAPEAXI@Z 0000000180002c20 f i * CIL library *:* CIL module *
 0001:00001c60       ?AsyncExecute@Nan@@YAXPEAUuv_work_s@@@Z 0000000180002c60 f i bcrypt_node.obj
 0001:00001c70       ?AsyncExecuteComplete@Nan@@YAXPEAUuv_work_s@@@Z 0000000180002c70 f i bcrypt_node.obj
 0001:00001ca0       ?AsyncQueueWorker@Nan@@YAXPEAVAsyncWorker@1@@Z 0000000180002ca0 f i bcrypt_node.obj
 0001:00001ce0       ?Export@Nan@@YAXV?$Local@VObject@v8@@@v8@@PEBDP6AXAEBV?$FunctionCallbackInfo@VValue@v8@@@1@@Z@Z 0000000180002ce0 f i bcrypt_node.obj
 0001:000043a0       ?init@@YAXV?$Local@VObject@v8@@@v8@@@Z 00000001800053a0 f   bcrypt_node.obj
 0001:00004460       ??0?$basic_string@DU?$char_traits@D@std@@V?$allocator@D@2@@std@@QEAA@AEBV01@@Z 0000000180005460 f i bcrypt_node.obj
 0001:00004540       ?assign@?$basic_string@DU?$char_traits@D@std@@V?$allocator@D@2@@std@@QEAAAEAV12@QEBD_K@Z 0000000180005540 f i bcrypt_node.obj
 0001:00004690       ?_Xlen@?$basic_string@DU?$char_traits@D@std@@V?$allocator@D@2@@std@@SAXXZ 0000000180005690 f i bcrypt_node.obj
 0001:000046fc       __imp_load_uv_queue_work   00000001800056fc f   node:node.exe
 0001:00004708       __tailMerge_node_exe       0000000180005708     node:node.exe
 0001:00004781       __imp_load_?Global@Context@v8@@QEAA?AV?$Local@VObject@v8@@@2@XZ 0000000180005781 f   node:node.exe
 0001:0000478d       __imp_load_?Value@External@v8@@QEBAPEAXXZ 000000018000578d f   node:node.exe
 0001:00004799       __imp_load_?New@External@v8@@SA?AV?$Local@VExternal@v8@@@2@PEAVIsolate@2@PEAX@Z 0000000180005799 f   node:node.exe
 0001:000047a5       __imp_load_?NewFromUnsigned@Integer@v8@@SA?AV?$Local@VInteger@v8@@@2@PEAVIsolate@2@I@Z 00000001800057a5 f   node:node.exe
 0001:000047b1       __imp_load_?ThrowException@Isolate@v8@@QEAA?AV?$Local@VValue@v8@@@2@V32@@Z 00000001800057b1 f   node:node.exe
 0001:000047bd       __imp_load_?GetCurrentContext@Isolate@v8@@QEAA?AV?$Local@VContext@v8@@@2@XZ 00000001800057bd f   node:node.exe
 0001:000047c9       __imp_load_?GetCurrent@Isolate@v8@@SAPEAV12@XZ 00000001800057c9 f   node:node.exe
 0001:000047d5       __imp_load_?CreateHandle@HandleScope@v8@@KAPEAPEAVObject@internal@2@PEAVIsolate@42@PEAV342@@Z 00000001800057d5 f   node:node.exe
 0001:000047e1       __imp_load_?CreateHandle@HandleScope@v8@@CAPEAPEAVObject@internal@2@PEAVHeapObject@42@PEAV342@@Z 00000001800057e1 f   node:node.exe
 0001:000047ed       __imp_load_??1HandleScope@v8@@QEAA@XZ 00000001800057ed f   node:node.exe
 0001:000047f9       __imp_load_??0HandleScope@v8@@QEAA@PEAVIsolate@1@@Z 00000001800057f9 f   node:node.exe
 0001:00004805       __imp_load_?Error@Exception@v8@@SA?AV?$Local@VValue@v8@@@2@V?$Local@VString@v8@@@2@@Z 0000000180005805 f   node:node.exe
 0001:00004811       __imp_load_?TypeError@Exception@v8@@SA?AV?$Local@VValue@v8@@@2@V?$Local@VString@v8@@@2@@Z 0000000180005811 f   node:node.exe
 0001:0000481d       __imp_load_?GetFunction@FunctionTemplate@v8@@QEAA?AV?$MaybeLocal@VFunction@v8@@@2@V?$Local@VContext@v8@@@2@@Z 000000018000581d f   node:node.exe
 0001:00004829       __imp_load_?New@FunctionTemplate@v8@@SA?AV?$Local@VFunctionTemplate@v8@@@2@PEAVIsolate@2@P6AXAEBV?$FunctionCallbackInfo@VValue@v8@@@2@@ZV?$Local@VValue@v8@@@2@V?$Local@VSignature@v8@@@2@HW4ConstructorBehavior@2@W4SideEffectType@2@@Z 0000000180005829 f   node:node.exe
 0001:00004835       __imp_load_?ToLocalEmpty@V8@v8@@CAXXZ 0000000180005835 f   node:node.exe
 0001:00004841       __imp_load_?DisposeGlobal@V8@v8@@CAXPEAPEAVObject@internal@2@@Z 0000000180005841 f   node:node.exe
 0001:0000484d       __imp_load_?GlobalizeReference@V8@v8@@CAPEAPEAVObject@internal@2@PEAVIsolate@42@PEAPEAV342@@Z 000000018000584d f   node:node.exe
 0001:00004859       __imp_load_?Int32Value@Value@v8@@QEBA?AV?$Maybe@H@2@V?$Local@VContext@v8@@@2@@Z 0000000180005859 f   node:node.exe
 0001:00004865       __imp_load_?ToUint32@Value@v8@@QEBA?AV?$MaybeLocal@VUint32@v8@@@2@V?$Local@VContext@v8@@@2@@Z 0000000180005865 f   node:node.exe
 0001:00004871       __imp_load_?ToString@Value@v8@@QEBA?AV?$MaybeLocal@VString@v8@@@2@V?$Local@VContext@v8@@@2@@Z 0000000180005871 f   node:node.exe
 0001:0000487d       __imp_load_?Escape@EscapableHandleScope@v8@@AEAAPEAPEAVObject@internal@2@PEAPEAV342@@Z 000000018000587d f   node:node.exe
 0001:00004889       __imp_load_??0EscapableHandleScope@v8@@QEAA@PEAVIsolate@1@@Z 0000000180005889 f   node:node.exe
 0001:00004895       __imp_load_?NewFromUtf8@String@v8@@SA?AV?$MaybeLocal@VString@v8@@@2@PEAVIsolate@2@PEBDW4NewStringType@2@H@Z 0000000180005895 f   node:node.exe
 0001:000048a1       __imp_load_?WriteUtf8@String@v8@@QEBAHPEADHPEAHH@Z 00000001800058a1 f   node:node.exe
 0001:000048ad       __imp_load_?Length@String@v8@@QEBAHXZ 00000001800058ad f   node:node.exe
 0001:000048b9       __imp_load_?SlowGetInternalField@Object@v8@@AEAA?AV?$Local@VValue@v8@@@2@H@Z 00000001800058b9 f   node:node.exe
 0001:000048c5       __imp_load_?New@Object@v8@@SA?AV?$Local@VObject@v8@@@2@PEAVIsolate@2@@Z 00000001800058c5 f   node:node.exe
 0001:000048d1       __imp_load_?SetInternalField@Object@v8@@QEAAXHV?$Local@VValue@v8@@@2@@Z 00000001800058d1 f   node:node.exe
 0001:000048dd       __imp_load_?Set@Object@v8@@QEAA?AV?$Maybe@_N@2@V?$Local@VContext@v8@@@2@V?$Local@VValue@v8@@@2@1@Z 00000001800058dd f   node:node.exe
 0001:000048e9       __imp_load_?SetInternalFieldCount@ObjectTemplate@v8@@QEAAXH@Z 00000001800058e9 f   node:node.exe
 0001:000048f5       __imp_load_?NewInstance@ObjectTemplate@v8@@QEAA?AV?$MaybeLocal@VObject@v8@@@2@V?$Local@VContext@v8@@@2@@Z 00000001800058f5 f   node:node.exe
 0001:00004901       __imp_load_?New@ObjectTemplate@v8@@SA?AV?$Local@VObjectTemplate@v8@@@2@PEAVIsolate@2@V?$Local@VFunctionTemplate@v8@@@2@@Z 0000000180005901 f   node:node.exe
 0001:0000490d       __imp_load_?EmitAsyncDestroy@node@@YAXPEAVIsolate@v8@@Uasync_context@1@@Z 000000018000590d f   node:node.exe
 0001:00004919       __imp_load_?Encode@node@@YA?AV?$Local@VValue@v8@@@v8@@PEAVIsolate@3@PEBD_KW4encoding@1@@Z 0000000180005919 f   node:node.exe
 0001:00004925       __imp_load_node_module_register 0000000180005925 f   node:node.exe
 0001:00004931       __imp_load_?HasInstance@Buffer@node@@YA_NV?$Local@VValue@v8@@@v8@@@Z 0000000180005931 f   node:node.exe
 0001:0000493d       __imp_load_?Data@Buffer@node@@YAPEADV?$Local@VObject@v8@@@v8@@@Z 000000018000593d f   node:node.exe
 0001:00004949       __imp_load_?Length@Buffer@node@@YA_KV?$Local@VObject@v8@@@v8@@@Z 0000000180005949 f   node:node.exe
 0001:00004955       __imp_load_?MakeCallback@node@@YA?AV?$MaybeLocal@VValue@v8@@@v8@@PEAVIsolate@3@V?$Local@VObject@v8@@@3@V?$Local@VFunction@v8@@@3@HPEAV?$Local@VValue@v8@@@3@Uasync_context@1@@Z 0000000180005955 f   node:node.exe
 0001:00004961       __imp_load_?EmitAsyncInit@node@@YA?AUasync_context@1@PEAVIsolate@v8@@V?$Local@VObject@v8@@@4@V?$Local@VString@v8@@@4@N@Z 0000000180005961 f   node:node.exe
 0001:0000496d       __imp_load_?GetCurrentEventLoop@node@@YAPEAUuv_loop_s@@PEAVIsolate@v8@@@Z 000000018000596d f   node:node.exe
 0001:00004990       __security_check_cookie    0000000180005990 f   LIBCMT:amdsecgs.obj
 0001:000049b4       ??3@YAXPEAX_K@Z            00000001800059b4 f   LIBCMT:delete_scalar_size.obj
 0001:000049b4       ??_V@YAXPEAX@Z             00000001800059b4 f   LIBCMT:delete_array.obj
 0001:000049bc       ??2@YAPEAX_K@Z             00000001800059bc f   LIBCMT:new_scalar.obj
 0001:00004d28       _DllMainCRTStartup         0000000180005d28 f   LIBCMT:dll_dllmain.obj
 0001:00004d68       __raise_securityfailure    0000000180005d68 f   LIBCMT:gs_report.obj
 0001:00004d9c       __report_gsfailure         0000000180005d9c f   LIBCMT:gs_report.obj
 0001:00004e70       __report_rangecheckfailure 0000000180005e70 f   LIBCMT:gs_report.obj
 0001:00004e84       __report_securityfailure   0000000180005e84 f   LIBCMT:gs_report.obj
 0001:00005004       ??3@YAXPEAX@Z              0000000180006004 f   LIBCMT:delete_scalar.obj
 0001:0000500c       ??0bad_alloc@std@@QEAA@AEBV01@@Z 000000018000600c f i LIBCMT:throw_bad_alloc.obj
 0001:0000504c       ??0bad_alloc@std@@QEAA@XZ  000000018000604c f i LIBCMT:throw_bad_alloc.obj
 0001:0000506c       ??0bad_array_new_length@std@@QEAA@AEBV01@@Z 000000018000606c f i LIBCMT:throw_bad_alloc.obj
 0001:000050ac       ??0bad_array_new_length@std@@QEAA@XZ 00000001800060ac f i LIBCMT:throw_bad_alloc.obj
 0001:000050cc       ??0exception@std@@QEAA@AEBV01@@Z 00000001800060cc f i LIBCMT:throw_bad_alloc.obj
 0001:00005104       ??1length_error@std@@UEAA@XZ 0000000180006104 f i libcpmt:xthrow.obj
 0001:00005104       ??1bad_array_new_length@std@@UEAA@XZ 0000000180006104 f i LIBCMT:throw_bad_alloc.obj
 0001:00005104       ??1bad_alloc@std@@UEAA@XZ  0000000180006104 f i LIBCMT:throw_bad_alloc.obj
 0001:00005118       ??_Gexception@std@@UEAAPEAXI@Z 0000000180006118 f i LIBCMT:throw_bad_alloc.obj
 0001:00005118       ??_Gbad_alloc@std@@UEAAPEAXI@Z 0000000180006118 f i LIBCMT:throw_bad_alloc.obj
 0001:00005118       ??_Gbad_array_new_length@std@@UEAAPEAXI@Z 0000000180006118 f i LIBCMT:throw_bad_alloc.obj
 0001:00005118       ??_Elength_error@std@@UEAAPEAXI@Z 0000000180006118 f i libcpmt:xthrow.obj
 0001:00005118       ??_Ebad_array_new_length@std@@UEAAPEAXI@Z 0000000180006118 f i LIBCMT:throw_bad_alloc.obj
 0001:00005118       ??_Elogic_error@std@@UEAAPEAXI@Z 0000000180006118 f i libcpmt:xthrow.obj
 0001:00005118       ??_Glogic_error@std@@UEAAPEAXI@Z 0000000180006118 f i libcpmt:xthrow.obj
 0001:00005118       ??_Ebad_alloc@std@@UEAAPEAXI@Z 0000000180006118 f i LIBCMT:throw_bad_alloc.obj
 0001:00005118       ??_Eexception@std@@UEAAPEAXI@Z 0000000180006118 f i LIBCMT:throw_bad_alloc.obj
 0001:00005118       ??_Glength_error@std@@UEAAPEAXI@Z 0000000180006118 f i libcpmt:xthrow.obj
 0001:0000515c       ?__scrt_throw_std_bad_alloc@@YAXXZ 000000018000615c f   LIBCMT:throw_bad_alloc.obj
 0001:0000517c       ?__scrt_throw_std_bad_array_new_length@@YAXXZ 000000018000617c f   LIBCMT:throw_bad_alloc.obj
 0001:0000519c       ?what@exception@std@@UEBAPEBDXZ 000000018000619c f i LIBCMT:throw_bad_alloc.obj
 0001:000051b0       __security_init_cookie     00000001800061b0 f   LIBCMT:gs_support.obj
 0001:0000525c       _get_startup_argv_mode     000000018000625c f   LIBCMT:argv_mode.obj
 0001:0000525c       DllMain                    000000018000625c f   LIBCMT:dll_dllmain_stub.obj
 0001:00005264       ?__scrt_initialize_type_info@@YAXXZ 0000000180006264 f   LIBCMT:tncleanup.obj
 0001:00005274       ?__scrt_uninitialize_type_info@@YAXXZ 0000000180006274 f   LIBCMT:tncleanup.obj
 0001:00005280       __local_stdio_scanf_options 0000000180006280 f i LIBCMT:default_local_stdio_options.obj
 0001:00005288       __scrt_initialize_default_local_stdio_options 0000000180006288 f   LIBCMT:default_local_stdio_options.obj
 0001:000052a4       __scrt_acquire_startup_lock 00000001800062a4 f   LIBCMT:utility.obj
 0001:000052e0       __scrt_dllmain_after_initialize_c 00000001800062e0 f   LIBCMT:utility.obj
 0001:00005314       __scrt_dllmain_before_initialize_c 0000000180006314 f   LIBCMT:utility.obj
 0001:0000532c       __scrt_dllmain_crt_thread_attach 000000018000632c f   LIBCMT:utility.obj
 0001:00005354       __scrt_dllmain_crt_thread_detach 0000000180006354 f   LIBCMT:utility.obj
 0001:0000536c       __scrt_dllmain_exception_filter 000000018000636c f   LIBCMT:utility.obj
 0001:000053cc       __scrt_dllmain_uninitialize_c 00000001800063cc f   LIBCMT:utility.obj
 0001:000053fc       __scrt_dllmain_uninitialize_critical 00000001800063fc f   LIBCMT:utility.obj
 0001:00005410       __scrt_initialize_crt      0000000180006410 f   LIBCMT:utility.obj
 0001:0000545c       __scrt_initialize_onexit_tables 000000018000645c f   LIBCMT:utility.obj
 0001:00005534       __scrt_is_nonwritable_in_current_image 0000000180006534 f   LIBCMT:utility.obj
 0001:000055d0       __scrt_release_startup_lock 00000001800065d0 f   LIBCMT:utility.obj
 0001:000055f4       __scrt_uninitialize_crt    00000001800065f4 f   LIBCMT:utility.obj
 0001:00005620       __scrt_get_dyn_tls_init_callback 0000000180006620 f   LIBCMT:dyn_tls_init.obj
 0001:00005628       __crt_debugger_hook        0000000180006628 f   LIBCMT:utility_desktop.obj
 0001:00005630       __scrt_fastfail            0000000180006630 f   LIBCMT:utility_desktop.obj
 0001:0000577c       _RTC_Initialize            000000018000677c f   LIBCMT:initsect.obj
 0001:000057b8       _RTC_Terminate             00000001800067b8 f   LIBCMT:initsect.obj
 0001:000057f4       _guard_check_icall_nop     00000001800067f4 f i LIBCMT:guard_support.obj
 0001:000057f8       ??_Gtype_info@@UEAAPEAXI@Z 00000001800067f8 f i LIBCMT:std_type_info_static.obj
 0001:000057f8       ??_Etype_info@@UEAAPEAXI@Z 00000001800067f8 f i LIBCMT:std_type_info_static.obj
 0001:00005824       __isa_available_init       0000000180006824 f   LIBCMT:cpu_disp.obj
 0001:000059a0       __scrt_is_ucrt_dll_in_use  00000001800069a0 f   LIBCMT:ucrt_detection.obj
 0001:000059b0       ??0length_error@std@@QEAA@AEBV01@@Z 00000001800069b0 f i libcpmt:xthrow.obj
 0001:000059f0       ??0length_error@std@@QEAA@PEBD@Z 00000001800069f0 f i libcpmt:xthrow.obj
 0001:00005a3c       ??0logic_error@std@@QEAA@AEBV01@@Z 0000000180006a3c f i libcpmt:xthrow.obj
 0001:00005a7c       ?_Xlength_error@std@@YAXPEBD@Z 0000000180006a7c f   libcpmt:xthrow.obj
 0001:00005aa0       _purecall                  0000000180006aa0 f   libvcruntime:purevirt.obj
 0001:00005ad0       __C_specific_handler       0000000180006ad0 f   libvcruntime:riscchandler.obj
 0001:00005cdc       __std_exception_copy       0000000180006cdc f   libvcruntime:std_exception.obj
 0001:00005d6c       __std_exception_destroy    0000000180006d6c f   libvcruntime:std_exception.obj
 0001:00005d94       _CxxThrowException         0000000180006d94 f   libvcruntime:throw.obj
 0001:00005e54       __std_type_info_destroy_list 0000000180006e54 f   libvcruntime:std_type_info.obj
 0001:00005e80       __vcrt_initialize          0000000180006e80 f   libvcruntime:initialization.obj
 0001:00005eb4       __vcrt_thread_attach       0000000180006eb4 f   libvcruntime:initialization.obj
 0001:00005ec8       __vcrt_thread_detach       0000000180006ec8 f   libvcruntime:initialization.obj
 0001:00005edc       __vcrt_uninitialize        0000000180006edc f   libvcruntime:initialization.obj
 0001:00005efc       __vcrt_uninitialize_critical 0000000180006efc f   libvcruntime:initialization.obj
 0001:00005f20       memset_repmovs             0000000180006f20 f   libvcruntime:memset.obj
 0001:00005f40       memset                     0000000180006f40 f   libvcruntime:memset.obj
 0001:000060d0       __vcrt_initialize_pure_virtual_call_handler 00000001800070d0 f   libvcruntime:purevirt_data.obj
 0001:000060f0       _NLG_Notify                00000001800070f0 f   libvcruntime:notify.obj
 0001:00006110       __NLG_Dispatch2            0000000180007110 f   libvcruntime:notify.obj
 0001:00006120       __NLG_Return2              0000000180007120 f   libvcruntime:notify.obj
 0001:00006124       __except_validate_context_record 0000000180007124 f   libvcruntime:jbcxrval.obj
 0001:0000615c       __DestructExceptionObject  000000018000715c f   libvcruntime:ehhelpers.obj
 0001:000061d0       ?_CallMemberFunction0@@YAXQEAX0@Z 00000001800071d0 f i libvcruntime:ehhelpers.obj
 0001:000061d4       __vcrt_freefls             00000001800071d4 f   libvcruntime:per_thread_data.obj
 0001:000061f4       __vcrt_freeptd             00000001800071f4 f   libvcruntime:per_thread_data.obj
 0001:00006244       __vcrt_getptd_noexit       0000000180007244 f   libvcruntime:per_thread_data.obj
 0001:00006310       __vcrt_initialize_ptd      0000000180007310 f   libvcruntime:per_thread_data.obj
 0001:00006364       __vcrt_uninitialize_ptd    0000000180007364 f   libvcruntime:per_thread_data.obj
 0001:00006388       __vcrt_initialize_locks    0000000180007388 f   libvcruntime:locks.obj
 0001:000063d0       __vcrt_uninitialize_locks  00000001800073d0 f   libvcruntime:locks.obj
 0001:000065e0       __vcrt_FlsAlloc            00000001800075e0 f   libvcruntime:winapi_downlevel.obj
 0001:00006628       __vcrt_FlsFree             0000000180007628 f   libvcruntime:winapi_downlevel.obj
 0001:00006670       __vcrt_FlsGetValue         0000000180007670 f   libvcruntime:winapi_downlevel.obj
 0001:000066b8       __vcrt_FlsSetValue         00000001800076b8 f   libvcruntime:winapi_downlevel.obj
 0001:0000670c       __vcrt_InitializeCriticalSectionEx 000000018000770c f   libvcruntime:winapi_downlevel.obj
 0001:00006770       __vcrt_initialize_winapi_thunks 0000000180007770 f   libvcruntime:winapi_downlevel.obj
 0001:000067a0       __vcrt_uninitialize_winapi_thunks 00000001800077a0 f   libvcruntime:winapi_downlevel.obj
 0001:000067f0       memcpy_repmovs             00000001800077f0 f   libvcruntime:memcpy.obj
 0001:00006810       memcpy                     0000000180007810 f   libvcruntime:memcpy.obj
 0001:00006810       memmove                    0000000180007810 f   libvcruntime:memcpy.obj
 0001:00006c50       _CallSettingFrame          0000000180007c50 f   libvcruntime:handlers.obj
 0001:00006ca0       _CallSettingFrameEncoded   0000000180007ca0 f   libvcruntime:handlers.obj
 0001:000070c8       ??$ensure_buffer_is_big_enough@D@formatting_buffer@__crt_stdio_output@@QEAA_N_K@Z 00000001800080c8 f i libucrt:output.obj
 0001:00007170       ??$ensure_buffer_is_big_enough@_W@formatting_buffer@__crt_stdio_output@@QEAA_N_K@Z 0000000180008170 f i libucrt:output.obj
 0001:0000721c       ??$is_wide_character_specifier@_W@__crt_stdio_output@@YA_N_K_WW4length_modifier@0@@Z 000000018000821c f i libucrt:output.obj
 0001:0000725c       ??$type_case_integer_parse_into_buffer@I@?$output_processor@DV?$string_output_adapter@D@__crt_stdio_output@@V?$standard_base@DV?$string_output_adapter@D@__crt_stdio_output@@@2@@__crt_stdio_output@@AEAAXII_N@Z 000000018000825c f i libucrt:output.obj
 0001:000072e4       ??$type_case_integer_parse_into_buffer@I@?$output_processor@_WV?$string_output_adapter@_W@__crt_stdio_output@@V?$standard_base@_WV?$string_output_adapter@_W@__crt_stdio_output@@@2@@__crt_stdio_output@@AEAAXII_N@Z 00000001800082e4 f i libucrt:output.obj
 0001:000072e4       ??$type_case_integer_parse_into_buffer@I@?$output_processor@_WV?$stream_output_adapter@_W@__crt_stdio_output@@V?$standard_base@_WV?$stream_output_adapter@_W@__crt_stdio_output@@@2@@__crt_stdio_output@@AEAAXII_N@Z 00000001800082e4 f i libucrt:output.obj
 0001:00007380       ??$type_case_integer_parse_into_buffer@_K@?$output_processor@DV?$string_output_adapter@D@__crt_stdio_output@@V?$standard_base@DV?$string_output_adapter@D@__crt_stdio_output@@@2@@__crt_stdio_output@@AEAAX_KI_N@Z 0000000180008380 f i libucrt:output.obj
 0001:00007410       ??$type_case_integer_parse_into_buffer@_K@?$output_processor@_WV?$string_output_adapter@_W@__crt_stdio_output@@V?$standard_base@_WV?$string_output_adapter@_W@__crt_stdio_output@@@2@@__crt_stdio_output@@AEAAX_KI_N@Z 0000000180008410 f i libucrt:output.obj
 0001:00007410       ??$type_case_integer_parse_into_buffer@_K@?$output_processor@_WV?$stream_output_adapter@_W@__crt_stdio_output@@V?$standard_base@_WV?$stream_output_adapter@_W@__crt_stdio_output@@@2@@__crt_stdio_output@@AEAAX_KI_N@Z 0000000180008410 f i libucrt:output.obj
 0001:000074b0       ??$write_multiple_characters@V?$stream_output_adapter@_W@__crt_stdio_output@@D@__crt_stdio_output@@YAXAEBV?$stream_output_adapter@_W@0@DHQEAH@Z 00000001800084b0 f i libucrt:output.obj
 0001:0000753c       ??$write_multiple_characters@V?$string_output_adapter@D@__crt_stdio_output@@D@__crt_stdio_output@@YAXAEBV?$string_output_adapter@D@0@DHQEAH@Z 000000018000853c f i libucrt:output.obj
 0001:00007598       ??$write_multiple_characters@V?$string_output_adapter@_W@__crt_stdio_output@@D@__crt_stdio_output@@YAXAEBV?$string_output_adapter@_W@0@DHQEAH@Z 0000000180008598 f i libucrt:output.obj
 0001:00007608       ??0_LocaleUpdate@@QEAA@QEAU__crt_locale_pointers@@@Z 0000000180008608 f i libucrt:output.obj
 0001:000077cc       ?force_decimal_point@__crt_stdio_output@@YAXPEADQEAU__crt_locale_pointers@@@Z 00000001800087cc f i libucrt:output.obj
 0001:0000783c       ?parse_int_from_format_string@?$output_processor@DV?$string_output_adapter@D@__crt_stdio_output@@V?$standard_base@DV?$string_output_adapter@D@__crt_stdio_output@@@2@@__crt_stdio_output@@AEAA_NQEAH@Z 000000018000883c f i libucrt:output.obj
 0001:000078e0       ?parse_int_from_format_string@?$output_processor@_WV?$string_output_adapter@_W@__crt_stdio_output@@V?$standard_base@_WV?$string_output_adapter@_W@__crt_stdio_output@@@2@@__crt_stdio_output@@AEAA_NQEAH@Z 00000001800088e0 f i libucrt:output.obj
 0001:000078e0       ?parse_int_from_format_string@?$output_processor@_WV?$stream_output_adapter@_W@__crt_stdio_output@@V?$standard_base@_WV?$stream_output_adapter@_W@__crt_stdio_output@@@2@@__crt_stdio_output@@AEAA_NQEAH@Z 00000001800088e0 f i libucrt:output.obj
 0001:00007984       ?process@?$output_processor@DV?$string_output_adapter@D@__crt_stdio_output@@V?$standard_base@DV?$string_output_adapter@D@__crt_stdio_output@@@2@@__crt_stdio_output@@QEAAHXZ 0000000180008984 f i libucrt:output.obj
 0001:00007b8c       ?process@?$output_processor@_WV?$stream_output_adapter@_W@__crt_stdio_output@@V?$standard_base@_WV?$stream_output_adapter@_W@__crt_stdio_output@@@2@@__crt_stdio_output@@QEAAHXZ 0000000180008b8c f i libucrt:output.obj
 0001:00007dfc       ?process@?$output_processor@_WV?$string_output_adapter@_W@__crt_stdio_output@@V?$standard_base@_WV?$string_output_adapter@_W@__crt_stdio_output@@@2@@__crt_stdio_output@@QEAAHXZ 0000000180008dfc f i libucrt:output.obj
 0001:00008064       ?state_case_normal@?$output_processor@DV?$string_output_adapter@D@__crt_stdio_output@@V?$standard_base@DV?$string_output_adapter@D@__crt_stdio_output@@@2@@__crt_stdio_output@@AEAA_NXZ 0000000180009064 f i libucrt:output.obj
 0001:000080d8       ?state_case_normal_tchar@?$output_processor@DV?$string_output_adapter@D@__crt_stdio_output@@V?$standard_base@DV?$string_output_adapter@D@__crt_stdio_output@@@2@@__crt_stdio_output@@AEAA_ND@Z 00000001800090d8 f i libucrt:output.obj
 0001:00008170       ?state_case_size@?$output_processor@DV?$string_output_adapter@D@__crt_stdio_output@@V?$standard_base@DV?$string_output_adapter@D@__crt_stdio_output@@@2@@__crt_stdio_output@@AEAA_NXZ 0000000180009170 f i libucrt:output.obj
 0001:000082ec       ?state_case_size@?$output_processor@_WV?$stream_output_adapter@_W@__crt_stdio_output@@V?$standard_base@_WV?$stream_output_adapter@_W@__crt_stdio_output@@@2@@__crt_stdio_output@@AEAA_NXZ 00000001800092ec f i libucrt:output.obj
 0001:00008490       ?state_case_size@?$output_processor@_WV?$string_output_adapter@_W@__crt_stdio_output@@V?$standard_base@_WV?$string_output_adapter@_W@__crt_stdio_output@@@2@@__crt_stdio_output@@AEAA_NXZ 0000000180009490 f i libucrt:output.obj
 0001:00008634       ?state_case_type@?$output_processor@DV?$string_output_adapter@D@__crt_stdio_output@@V?$standard_base@DV?$string_output_adapter@D@__crt_stdio_output@@@2@@__crt_stdio_output@@AEAA_NXZ 0000000180009634 f i libucrt:output.obj
 0001:000088a8       ?state_case_type@?$output_processor@_WV?$stream_output_adapter@_W@__crt_stdio_output@@V?$standard_base@_WV?$stream_output_adapter@_W@__crt_stdio_output@@@2@@__crt_stdio_output@@AEAA_NXZ 00000001800098a8 f i libucrt:output.obj
 0001:00008b94       ?state_case_type@?$output_processor@_WV?$string_output_adapter@_W@__crt_stdio_output@@V?$standard_base@_WV?$string_output_adapter@_W@__crt_stdio_output@@@2@@__crt_stdio_output@@AEAA_NXZ 0000000180009b94 f i libucrt:output.obj
 0001:00008e70       ?type_case_Z@?$output_processor@DV?$string_output_adapter@D@__crt_stdio_output@@V?$standard_base@DV?$string_output_adapter@D@__crt_stdio_output@@@2@@__crt_stdio_output@@AEAA_NXZ 0000000180009e70 f i libucrt:output.obj
 0001:00008ef0       ?type_case_Z@?$output_processor@_WV?$string_output_adapter@_W@__crt_stdio_output@@V?$standard_base@_WV?$string_output_adapter@_W@__crt_stdio_output@@@2@@__crt_stdio_output@@AEAA_NXZ 0000000180009ef0 f i libucrt:output.obj
 0001:00008ef0       ?type_case_Z@?$output_processor@_WV?$stream_output_adapter@_W@__crt_stdio_output@@V?$standard_base@_WV?$stream_output_adapter@_W@__crt_stdio_output@@@2@@__crt_stdio_output@@AEAA_NXZ 0000000180009ef0 f i libucrt:output.obj
 0001:00008f70       ?type_case_a@?$output_processor@DV?$string_output_adapter@D@__crt_stdio_output@@V?$standard_base@DV?$string_output_adapter@D@__crt_stdio_output@@@2@@__crt_stdio_output@@AEAA_NXZ 0000000180009f70 f i libucrt:output.obj
 0001:00009188       ?type_case_a@?$output_processor@_WV?$string_output_adapter@_W@__crt_stdio_output@@V?$standard_base@_WV?$string_output_adapter@_W@__crt_stdio_output@@@2@@__crt_stdio_output@@AEAA_NXZ 000000018000a188 f i libucrt:output.obj
 0001:00009188       ?type_case_a@?$output_processor@_WV?$stream_output_adapter@_W@__crt_stdio_output@@V?$standard_base@_WV?$stream_output_adapter@_W@__crt_stdio_output@@@2@@__crt_stdio_output@@AEAA_NXZ 000000018000a188 f i libucrt:output.obj
 0001:000093c8       ?type_case_c_tchar@?$output_processor@DV?$string_output_adapter@D@__crt_stdio_output@@V?$standard_base@DV?$string_output_adapter@D@__crt_stdio_output@@@2@@__crt_stdio_output@@AEAA_ND@Z 000000018000a3c8 f i libucrt:output.obj
 0001:00009494       ?type_case_c_tchar@?$output_processor@_WV?$stream_output_adapter@_W@__crt_stdio_output@@V?$standard_base@_WV?$stream_output_adapter@_W@__crt_stdio_output@@@2@@__crt_stdio_output@@AEAA_N_W@Z 000000018000a494 f i libucrt:output.obj
 0001:00009494       ?type_case_c_tchar@?$output_processor@_WV?$string_output_adapter@_W@__crt_stdio_output@@V?$standard_base@_WV?$string_output_adapter@_W@__crt_stdio_output@@@2@@__crt_stdio_output@@AEAA_N_W@Z 000000018000a494 f i libucrt:output.obj
 0001:0000953c       ?type_case_integer@?$output_processor@DV?$string_output_adapter@D@__crt_stdio_output@@V?$standard_base@DV?$string_output_adapter@D@__crt_stdio_output@@@2@@__crt_stdio_output@@AEAA_NI_N@Z 000000018000a53c f i libucrt:output.obj
 0001:00009700       ?type_case_integer@?$output_processor@_WV?$string_output_adapter@_W@__crt_stdio_output@@V?$standard_base@_WV?$string_output_adapter@_W@__crt_stdio_output@@@2@@__crt_stdio_output@@AEAA_NI_N@Z 000000018000a700 f i libucrt:output.obj
 0001:00009700       ?type_case_integer@?$output_processor@_WV?$stream_output_adapter@_W@__crt_stdio_output@@V?$standard_base@_WV?$stream_output_adapter@_W@__crt_stdio_output@@@2@@__crt_stdio_output@@AEAA_NI_N@Z 000000018000a700 f i libucrt:output.obj
 0001:000098cc       ?type_case_n@?$output_processor@_WV?$stream_output_adapter@_W@__crt_stdio_output@@V?$standard_base@_WV?$stream_output_adapter@_W@__crt_stdio_output@@@2@@__crt_stdio_output@@AEAA_NXZ 000000018000a8cc f i libucrt:output.obj
 0001:000098cc       ?type_case_n@?$output_processor@DV?$string_output_adapter@D@__crt_stdio_output@@V?$standard_base@DV?$string_output_adapter@D@__crt_stdio_output@@@2@@__crt_stdio_output@@AEAA_NXZ 000000018000a8cc f i libucrt:output.obj
 0001:000098cc       ?type_case_n@?$output_processor@_WV?$string_output_adapter@_W@__crt_stdio_output@@V?$standard_base@_WV?$string_output_adapter@_W@__crt_stdio_output@@@2@@__crt_stdio_output@@AEAA_NXZ 000000018000a8cc f i libucrt:output.obj
 0001:000099a8       ?type_case_s@?$output_processor@DV?$string_output_adapter@D@__crt_stdio_output@@V?$standard_base@DV?$string_output_adapter@D@__crt_stdio_output@@@2@@__crt_stdio_output@@AEAA_NXZ 000000018000a9a8 f i libucrt:output.obj
 0001:00009a44       ?type_case_s@?$output_processor@_WV?$string_output_adapter@_W@__crt_stdio_output@@V?$standard_base@_WV?$string_output_adapter@_W@__crt_stdio_output@@@2@@__crt_stdio_output@@AEAA_NXZ 000000018000aa44 f i libucrt:output.obj
 0001:00009a44       ?type_case_s@?$output_processor@_WV?$stream_output_adapter@_W@__crt_stdio_output@@V?$standard_base@_WV?$stream_output_adapter@_W@__crt_stdio_output@@@2@@__crt_stdio_output@@AEAA_NXZ 000000018000aa44 f i libucrt:output.obj
 0001:00009b0c       ?write_stored_string_tchar@?$output_processor@DV?$string_output_adapter@D@__crt_stdio_output@@V?$standard_base@DV?$string_output_adapter@D@__crt_stdio_output@@@2@@__crt_stdio_output@@AEAA_ND@Z 000000018000ab0c f i libucrt:output.obj
 0001:00009be4       ?write_stored_string_tchar@?$output_processor@_WV?$stream_output_adapter@_W@__crt_stdio_output@@V?$standard_base@_WV?$stream_output_adapter@_W@__crt_stdio_output@@@2@@__crt_stdio_output@@AEAA_N_W@Z 000000018000abe4 f i libucrt:output.obj
 0001:00009cec       ?write_stored_string_tchar@?$output_processor@_WV?$string_output_adapter@_W@__crt_stdio_output@@V?$standard_base@_WV?$string_output_adapter@_W@__crt_stdio_output@@@2@@__crt_stdio_output@@AEAA_N_W@Z 000000018000acec f i libucrt:output.obj
 0001:00009ddc       ?write_string@?$string_output_adapter@D@__crt_stdio_output@@QEBAXQEBDHQEAHAEAV__crt_deferred_errno_cache@@@Z 000000018000addc f i libucrt:output.obj
 0001:00009e80       ?write_string@?$string_output_adapter@_W@__crt_stdio_output@@QEBAXQEB_WHQEAHAEAV__crt_deferred_errno_cache@@@Z 000000018000ae80 f i libucrt:output.obj
 0001:00009f28       ?write_string_impl@?$output_adapter_common@_WV?$stream_output_adapter@_W@__crt_stdio_output@@@__crt_stdio_output@@IEBAXQEB_WHQEAHAEAV__crt_deferred_errno_cache@@@Z 000000018000af28 f i libucrt:output.obj
 0001:0000a02c       __stdio_common_vfwprintf   000000018000b02c f   libucrt:output.obj
 0001:0000a0b8       __stdio_common_vsprintf    000000018000b0b8 f   libucrt:output.obj
 0001:0000a0c0       __stdio_common_vswprintf   000000018000b0c0 f   libucrt:output.obj
 0001:0000a0c8       ??$parse_integer@KV?$c_string_character_source@D@__crt_strtox@@@__crt_strtox@@YAKQEAU__crt_locale_pointers@@V?$c_string_character_source@D@0@H_N@Z 000000018000b0c8 f i libucrt:atox.obj
 0001:0000a3e4       ??$parse_integer@KV?$c_string_character_source@_W@__crt_strtox@@@__crt_strtox@@YAKQEAU__crt_locale_pointers@@V?$c_string_character_source@_W@0@H_N@Z 000000018000b3e4 f i libucrt:atox.obj
 0001:0000aaa8       atoi                       000000018000baa8 f   libucrt:atox.obj
 0001:0000aad4       free                       000000018000bad4 f   libucrt:free.obj
 0001:0000b4bc       ??$ftprintf@PEAU_iobuf@@PEB_WAEBQEB_WAEBQEB_WAEBI@?$__crt_char_traits@_W@@SAH$$QEAPEAU_iobuf@@$$QEAPEB_WAEBQEB_W2AEBI@Z 000000018000c4bc f i libucrt:assert.obj
 0001:0000b4e4       _wassert                   000000018000c4e4 f   libucrt:assert.obj
 0001:0000b568       fwprintf                   000000018000c568 f i libucrt:assert.obj
 0001:0000b5ac       swprintf                   000000018000c5ac f i libucrt:assert.obj
 0001:0000b600       __acrt_call_reportfault    000000018000c600 f   libucrt:invalid_parameter.obj
 0001:0000b75c       __acrt_initialize_invalid_parameter_handler 000000018000c75c f   libucrt:invalid_parameter.obj
 0001:0000b764       _invalid_parameter         000000018000c764 f   libucrt:invalid_parameter.obj
 0001:0000b814       _invalid_parameter_noinfo  000000018000c814 f   libucrt:invalid_parameter.obj
 0001:0000b834       _invalid_parameter_noinfo_noreturn 000000018000c834 f   libucrt:invalid_parameter.obj
 0001:0000b864       _invoke_watson             000000018000c864 f   libucrt:invalid_parameter.obj
 0001:0000b8ac       malloc                     000000018000c8ac f   libucrt:malloc.obj
 0001:0000b8b4       __ascii_stricmp            000000018000c8b4 f   libucrt:stricmp.obj
 0001:0000b8f4       _stricmp                   000000018000c8f4 f   libucrt:stricmp.obj
 0001:0000b93c       _stricmp_l                 000000018000c93c f   libucrt:stricmp.obj
 0001:0000b9f0       __acrt_initialize_new_handler 000000018000c9f0 f   libucrt:new_handler.obj
 0001:0000b9f8       _callnewh                  000000018000c9f8 f   libucrt:new_handler.obj
 0001:0000ba28       _query_new_handler         000000018000ca28 f   libucrt:new_handler.obj
 0001:0000ba5c       _initterm                  000000018000ca5c f   libucrt:initterm.obj
 0001:0000bac0       _initterm_e                000000018000cac0 f   libucrt:initterm.obj
 0001:0000bb00       _seh_filter_dll            000000018000cb00 f   libucrt:exception_filter.obj
 0001:0000bb14       _seh_filter_exe            000000018000cb14 f   libucrt:exception_filter.obj
 0001:0000bf20       __acrt_initialize_thread_local_exit_callback 000000018000cf20 f   libucrt:exit.obj
 0001:0000bf28       _cexit                     000000018000cf28 f   libucrt:exit.obj
 0001:0000bf38       _exit                      000000018000cf38 f   libucrt:exit.obj
 0001:0000bf44       _is_c_termination_complete 000000018000cf44 f   libucrt:exit.obj
 0001:0000c108       __acrt_allocate_buffer_for_argv 000000018000d108 f   libucrt:argv_parsing.obj
 0001:0000c168       _configure_narrow_argv     000000018000d168 f   libucrt:argv_parsing.obj
 0001:0000c4e4       __dcrt_uninitialize_environments_nolock 000000018000d4e4 f   libucrt:environment_initialization.obj
 0001:0000c51c       _initialize_narrow_environment 000000018000d51c f   libucrt:environment_initialization.obj
 0001:0000c6ac       _execute_onexit_table      000000018000d6ac f   libucrt:onexit.obj
 0001:0000c6e8       _initialize_onexit_table   000000018000d6e8 f   libucrt:onexit.obj
 0001:0000c760       __acrt_uninitialize_command_line 000000018000d760 f   libucrt:argv_data.obj
 0001:0000c86c       __acrt_initialize          000000018000d86c f   libucrt:initialization.obj
 0001:0000c880       __acrt_thread_attach       000000018000d880 f   libucrt:initialization.obj
 0001:0000c894       __acrt_thread_detach       000000018000d894 f   libucrt:initialization.obj
 0001:0000c8a4       __acrt_uninitialize        000000018000d8a4 f   libucrt:initialization.obj
 0001:0000c8dc       __acrt_uninitialize_critical 000000018000d8dc f   libucrt:initialization.obj
 0001:0000c8ec       terminate                  000000018000d8ec f   libucrt:terminate.obj
 0001:0000c90c       abort                      000000018000d90c f   libucrt:abort.obj
 0001:0000c964       strcpy_s                   000000018000d964 f   libucrt:strcpy_s.obj
 0001:0000c9e0       strncmp                    000000018000d9e0 f   libucrt:strncmp.obj
 0001:0000ca60       calloc                     000000018000da60 f   libucrt:calloc.obj
 0001:0000ca68       wcsncmp                    000000018000da68 f   libucrt:wcsncmp.obj
 0001:0000ca94       isdigit                    000000018000da94 f i libucrt:_ctype.obj
 0001:0000cb4c       _tolower_l                 000000018000db4c f   libucrt:tolower_toupper.obj
 0001:0000cc8c       tolower                    000000018000dc8c f   libucrt:tolower_toupper.obj
 0001:0000ccb8       __acrt_errno_from_os_error 000000018000dcb8 f   libucrt:errno.obj
 0001:0000cd00       __acrt_errno_map_os_error  000000018000dd00 f   libucrt:errno.obj
 0001:0000cd50       __doserrno                 000000018000dd50 f   libucrt:errno.obj
 0001:0000cd70       _errno                     000000018000dd70 f   libucrt:errno.obj
 0001:0000cd90       _free_base                 000000018000dd90 f   libucrt:free_base.obj
 0001:0000cdd0       _malloc_base               000000018000ddd0 f   libucrt:malloc_base.obj
 0001:0000ce30       strtol                     000000018000de30 f   libucrt:strtox.obj
 0001:0000ce5c       wcstol                     000000018000de5c f   libucrt:strtox.obj
 0001:0000ce88       _mbtowc_l                  000000018000de88 f   libucrt:mbtowc.obj
 0001:0000cfd0       mbtowc                     000000018000dfd0 f   libucrt:mbtowc.obj
 0001:0000cfd8       _wctomb_s_l                000000018000dfd8 f   libucrt:wctomb.obj
 0001:0000d15c       wctomb_s                   000000018000e15c f   libucrt:wctomb.obj
 0001:0000d170       strnlen                    000000018000e170 f   libucrt:strnlen.obj
 0001:0000d2b4       wcsnlen                    000000018000e2b4 f   libucrt:strnlen.obj
 0001:0000d7f4       __acrt_freeptd             000000018000e7f4 f   libucrt:per_thread_data.obj
 0001:0000d838       __acrt_getptd              000000018000e838 f   libucrt:per_thread_data.obj
 0001:0000d904       __acrt_getptd_head         000000018000e904 f   libucrt:per_thread_data.obj
 0001:0000d9ac       __acrt_getptd_noexit       000000018000e9ac f   libucrt:per_thread_data.obj
 0001:0000da7c       __acrt_initialize_ptd      000000018000ea7c f   libucrt:per_thread_data.obj
 0001:0000dab8       __acrt_uninitialize_ptd    000000018000eab8 f   libucrt:per_thread_data.obj
 0001:0000dadc       __acrt_update_locale_info  000000018000eadc f   libucrt:locale_update.obj
 0001:0000db10       __acrt_update_multibyte_info 000000018000eb10 f   libucrt:locale_update.obj
 0001:0000e500       __acrt_fp_format           000000018000f500 f   libucrt:cvt.obj
 0001:0000e788       _fputwc_nolock             000000018000f788 f   libucrt:fputwc.obj
 0001:0000e900       _fileno                    000000018000f900 f   libucrt:fileno.obj
 0001:0000e928       __acrt_initialize_stdio    000000018000f928 f   libucrt:_file.obj
 0001:0000ea48       __acrt_iob_func            000000018000fa48 f   libucrt:_file.obj
 0001:0000ea5c       __acrt_uninitialize_stdio  000000018000fa5c f   libucrt:_file.obj
 0001:0000eab8       _lock_file                 000000018000fab8 f   libucrt:_file.obj
 0001:0000eac4       _unlock_file               000000018000fac4 f   libucrt:_file.obj
 0001:0000ead0       _fputc_nolock              000000018000fad0 f   libucrt:fputc.obj
 0001:0000eae8       _get_printf_count_output   000000018000fae8 f   libucrt:printf_count_output.obj
 0001:0000eb00       __acrt_stdio_begin_temporary_buffering_nolock 000000018000fb00 f   libucrt:_sftbuf.obj
 0001:0000ebd0       __acrt_stdio_end_temporary_buffering_nolock 000000018000fbd0 f   libucrt:_sftbuf.obj
 0001:0000ec7c       __acrt_set_locale_changed  000000018000fc7c f   libucrt:wsetlocale.obj
 0001:0000ec88       __acrt_uninitialize_locale 000000018000fc88 f   libucrt:wsetlocale.obj
 0001:0000eea0       __acrt_initialize_lowio    000000018000fea0 f   libucrt:ioinit.obj
 0001:0000eedc       __acrt_uninitialize_lowio  000000018000fedc f   libucrt:ioinit.obj
 0001:0000ef1c       __pctype_func              000000018000ff1c f   libucrt:ctype.obj
 0001:0000ef4c       iswctype                   000000018000ff4c f   libucrt:iswctype.obj
 0001:0000efbc       _isctype_l                 000000018000ffbc f   libucrt:isctype.obj
 0001:0000f0cc       _query_app_type            00000001800100cc f   libucrt:report_runtime_error.obj
 0001:0000f1e8       _itow_s                    00000001800101e8 f   libucrt:xtoa.obj
 0001:0000f208       _set_error_mode            0000000180010208 f   libucrt:set_error_mode.obj
 0001:0000f248       wcscat_s                   0000000180010248 f   libucrt:wcscat_s.obj
 0001:0000f2c8       wcscpy_s                   00000001800102c8 f   libucrt:wcscpy_s.obj
 0001:0000f330       wcsncat_s                  0000000180010330 f   libucrt:wcsncat_s.obj
 0001:0000f430       __acrt_show_wide_message_box 0000000180010430 f   libucrt:crtmbox.obj
 0001:0000f6f8       __acrt_stdio_flush_nolock  00000001800106f8 f   libucrt:fflush.obj
 0001:0000f774       _fflush_nolock             0000000180010774 f   libucrt:fflush.obj
 0001:0000f7c0       _flushall                  00000001800107c0 f   libucrt:fflush.obj
 0001:0000f7c8       fflush                     00000001800107c8 f   libucrt:fflush.obj
 0001:0000f960       setvbuf                    0000000180010960 f   libucrt:setvbuf.obj
 0001:0000fa44       __acrt_get_sigabrt_handler 0000000180010a44 f   libucrt:signal.obj
 0001:0000fa74       __acrt_initialize_signal_handlers 0000000180010a74 f   libucrt:signal.obj
 0001:0000fa94       raise                      0000000180010a94 f   libucrt:signal.obj
 0001:0000fd08       __acrt_initialize_locks    0000000180010d08 f   libucrt:locks.obj
 0001:0000fd50       __acrt_lock                0000000180010d50 f   libucrt:locks.obj
 0001:0000fd6c       __acrt_uninitialize_locks  0000000180010d6c f   libucrt:locks.obj
 0001:0000fda4       __acrt_unlock              0000000180010da4 f   libucrt:locks.obj
 0001:0000fdc0       __acrt_get_developer_information_policy 0000000180010dc0 f   libucrt:win_policies.obj
 0001:0000fe14       __acrt_get_process_end_policy 0000000180010e14 f   libucrt:win_policies.obj
 0001:0000fe50       __acrt_get_windowing_model_policy 0000000180010e50 f   libucrt:win_policies.obj
 0001:0000febc       _calloc_base               0000000180010ebc f   libucrt:calloc_base.obj
 0001:00010498       __acrt_expand_narrow_argv_wildcards 0000000180011498 f   libucrt:argv_wildcards.obj
 0001:00010be0       __acrt_initialize_multibyte 0000000180011be0 f   libucrt:mbctype.obj
 0001:00010c40       __acrt_update_thread_multibyte_data 0000000180011c40 f   libucrt:mbctype.obj
 0001:00010c5c       _setmbcp_nolock            0000000180011c5c f   libucrt:mbctype.obj
 0001:00010f94       _ismbblead                 0000000180011f94 f   libucrt:ismbbyte.obj
 0001:00010fa8       __acrt_initialize_command_line 0000000180011fa8 f   libucrt:argv_data.obj
 0001:00010fd0       __dcrt_get_narrow_environment_from_os 0000000180011fd0 f   libucrt:get_environment_from_os.obj
 0001:000110d4       _recalloc                  00000001800120d4 f   libucrt:recalloc.obj
 0001:000110dc       _recalloc_base             00000001800120dc f   libucrt:recalloc.obj
 0001:0001134c       __acrt_AppPolicyGetProcessTerminationMethodInternal 000000018001234c f   libucrt:winapi_thunks.obj
 0001:0001139c       __acrt_AppPolicyGetShowDeveloperDiagnosticInternal 000000018001239c f   libucrt:winapi_thunks.obj
 0001:000113ec       __acrt_AppPolicyGetWindowingModelInternal 00000001800123ec f   libucrt:winapi_thunks.obj
 0001:0001143c       __acrt_FlsAlloc            000000018001243c f   libucrt:winapi_thunks.obj
 0001:00011484       __acrt_FlsFree             0000000180012484 f   libucrt:winapi_thunks.obj
 0001:000114cc       __acrt_FlsGetValue         00000001800124cc f   libucrt:winapi_thunks.obj
 0001:00011514       __acrt_FlsSetValue         0000000180012514 f   libucrt:winapi_thunks.obj
 0001:00011568       __acrt_InitializeCriticalSectionEx 0000000180012568 f   libucrt:winapi_thunks.obj
 0001:000115cc       __acrt_LCMapStringEx       00000001800125cc f   libucrt:winapi_thunks.obj
 0001:000116a8       __acrt_LocaleNameToLCID    00000001800126a8 f   libucrt:winapi_thunks.obj
 0001:000116f8       __acrt_MessageBoxW         00000001800126f8 f   libucrt:winapi_thunks.obj
 0001:0001176c       __acrt_OutputDebugStringW  000000018001276c f   libucrt:winapi_thunks.obj
 0001:00011774       __acrt_can_show_message_box 0000000180012774 f   libucrt:winapi_thunks.obj
 0001:000117e4       __acrt_get_parent_window   00000001800127e4 f   libucrt:winapi_thunks.obj
 0001:00011860       __acrt_initialize_winapi_thunks 0000000180012860 f   libucrt:winapi_thunks.obj
 0001:000118a8       __acrt_is_interactive      00000001800128a8 f   libucrt:winapi_thunks.obj
 0001:00011970       __acrt_uninitialize_winapi_thunks 0000000180012970 f   libucrt:winapi_thunks.obj
 0001:000119b4       __acrt_initialize_heap     00000001800129b4 f   libucrt:heap_handle.obj
 0001:000119d0       __acrt_uninitialize_heap   00000001800129d0 f   libucrt:heap_handle.obj
 0001:000119dc       __acrt_execute_initializers 00000001800129dc f   libucrt:shared_initialization.obj
 0001:00011a5c       __acrt_execute_uninitializers 0000000180012a5c f   libucrt:shared_initialization.obj
 0001:00011a98       __acrt_has_user_matherr    0000000180012a98 f   libucrt:matherr.obj
 0001:00011ab8       __acrt_initialize_user_matherr 0000000180012ab8 f   libucrt:matherr.obj
 0001:00011ac0       __acrt_invoke_user_matherr 0000000180012ac0 f   libucrt:matherr.obj
 0001:00011af0       _isleadbyte_l              0000000180012af0 f i libucrt:_wctype.obj
 0001:00011e48       __acrt_LCMapStringA        0000000180012e48 f   libucrt:lcmapstringa.obj
 0001:00011ee0       _query_new_mode            0000000180012ee0 f   libucrt:new_mode.obj
 0001:00011ee8       __acrt_MultiByteToWideChar 0000000180012ee8 f   libucrt:multibytetowidechar.obj
 0001:00011ef0       __acrt_WideCharToMultiByte 0000000180012ef0 f   libucrt:widechartomultibyte.obj
 0001:00011ef8       __acrt_add_locale_ref      0000000180012ef8 f   libucrt:locale_refcounting.obj
 0001:00011f84       __acrt_free_locale         0000000180012f84 f   libucrt:locale_refcounting.obj
 0001:000120fc       __acrt_locale_add_lc_time_reference 00000001800130fc f   libucrt:locale_refcounting.obj
 0001:00012124       __acrt_locale_free_lc_time_if_unreferenced 0000000180013124 f   libucrt:locale_refcounting.obj
 0001:0001215c       __acrt_locale_release_lc_time_reference 000000018001315c f   libucrt:locale_refcounting.obj
 0001:00012184       __acrt_release_locale_ref  0000000180013184 f   libucrt:locale_refcounting.obj
 0001:0001222c       __acrt_update_thread_locale_data 000000018001322c f   libucrt:locale_refcounting.obj
 0001:0001229c       _updatetlocinfoEx_nolock   000000018001329c f   libucrt:locale_refcounting.obj
 0001:00012304       __acrt_fp_strflt_to_string 0000000180013304 f   libucrt:_fptostr.obj
 0001:000123d0       ?divide@__crt_strtox@@YA_KAEAUbig_integer@1@AEBU21@@Z 00000001800133d0 f i libucrt:cfout.obj
 0001:00012864       __acrt_fltout              0000000180013864 f   libucrt:cfout.obj
 0001:00013e04       __acrt_stdio_flush_and_write_narrow_nolock 0000000180014e04 f   libucrt:_flsbuf.obj
 0001:00013eec       __acrt_stdio_flush_and_write_wide_nolock 0000000180014eec f   libucrt:_flsbuf.obj
 0001:00013fd8       _fcloseall                 0000000180014fd8 f   libucrt:closeall.obj
 0001:0001408c       __acrt_stdio_free_buffer_nolock 000000018001508c f   libucrt:_freebuf.obj
 0001:000140cc       _isatty                    00000001800150cc f   libucrt:isatty.obj
 0001:0001412c       __acrt_locale_free_monetary 000000018001512c f   libucrt:initmon.obj
 0001:00014238       __acrt_locale_free_numeric 0000000180015238 f   libucrt:initnum.obj
 0001:000142f8       __acrt_locale_free_time    00000001800152f8 f   libucrt:inittime.obj
 0001:00014400       __acrt_GetStringTypeA      0000000180015400 f   libucrt:getstringtypea.obj
 0001:00014590       __acrt_lowio_create_handle_array 0000000180015590 f   libucrt:osfinfo.obj
 0001:00014628       __acrt_lowio_destroy_handle_array 0000000180015628 f   libucrt:osfinfo.obj
 0001:00014678       __acrt_lowio_ensure_fh_exists 0000000180015678 f   libucrt:osfinfo.obj
 0001:00014720       __acrt_lowio_lock_fh       0000000180015720 f   libucrt:osfinfo.obj
 0001:00014744       __acrt_lowio_unlock_fh     0000000180015744 f   libucrt:osfinfo.obj
 0001:00014768       _free_osfhnd               0000000180015768 f   libucrt:osfinfo.obj
 0001:00014824       _get_osfhandle             0000000180015824 f   libucrt:osfinfo.obj
 0001:0001489c       __acrt_GetStringTypeW      000000018001589c f   libucrt:getstringtypew.obj
 0001:00014930       _commit                    0000000180015930 f   libucrt:commit.obj
 0001:00014f7c       _write                     0000000180015f7c f   libucrt:write.obj
 0001:00015068       _write_nolock              0000000180016068 f   libucrt:write.obj
 0001:000153b0       qsort                      00000001800163b0 f   libucrt:qsort.obj
 0001:00015760       strncpy_s                  0000000180016760 f   libucrt:strncpy_s.obj
 0001:000158e0       strpbrk                    00000001800168e0 f   libucrt:strpbrk.obj
 0001:00015cc0       _mbsdec                    0000000180016cc0 f   libucrt:mbsdec.obj
 0001:00015cc8       _mbsdec_l                  0000000180016cc8 f   libucrt:mbsdec.obj
 0001:00015d70       _msize                     0000000180016d70 f   libucrt:msize.obj
 0001:00015d78       _msize_base                0000000180016d78 f   libucrt:msize.obj
 0001:00015db4       _realloc_base              0000000180016db4 f   libucrt:realloc_base.obj
 0001:00015efc       __acrt_DownlevelLocaleNameToLCID 0000000180016efc f   libucrt:lcidtoname_downlevel.obj
 0001:00015f30       __strncnt                  0000000180016f30 f   libucrt:strncnt.obj
 0001:00015f48       fegetenv                   0000000180016f48 f   libucrt:fegetenv.obj
 0001:00015f68       fesetenv                   0000000180016f68 f   libucrt:fesetenv.obj
 0001:00015fb8       feholdexcept               0000000180016fb8 f   libucrt:feholdexcept.obj
 0001:00016008       ceil                       0000000180017008 f   libucrt:ceil.obj
 0001:000160d0       log10                      00000001800170d0 f   libucrt:log10.obj
 0001:00016808       _lseeki64                  0000000180017808 f   libucrt:lseek.obj
 0001:00016810       _lseeki64_nolock           0000000180017810 f   libucrt:lseek.obj
 0001:00016818       __acrt_stdio_allocate_buffer_nolock 0000000180017818 f   libucrt:_getbuf.obj
 0001:0001687c       _fclose_nolock             000000018001787c f   libucrt:fclose.obj
 0001:00016900       fclose                     0000000180017900 f   libucrt:fclose.obj
 0001:00016964       _putwch_nolock             0000000180017964 f   libucrt:putwch.obj
 0001:000169a0       __acrt_fenv_get_control    00000001800179a0 f   libucrt:_fenvutils.obj
 0001:00016aa0       __acrt_fenv_get_status     0000000180017aa0 f   libucrt:_fenvutils.obj
 0001:00016af8       __acrt_fenv_set_control    0000000180017af8 f   libucrt:_fenvutils.obj
 0001:00016c40       __acrt_fenv_set_status     0000000180017c40 f   libucrt:_fenvutils.obj
 0001:00016cc4       _clearfp                   0000000180017cc4 f   libucrt:ieee.obj
 0001:00016e58       _handle_error              0000000180017e58 f   libucrt:libm_error.obj
 0001:00016f80       _handle_nan                0000000180017f80 f   libucrt:libm_error.obj
 0001:00016fa0       __acrt_initialize_fma3     0000000180017fa0 f   libucrt:fma3_available.obj
 0001:00017010       _log10_special             0000000180018010 f   libucrt:log_special.obj
 0001:0001713c       _close                     000000018001813c f   libucrt:close.obj
 0001:000171e0       _close_nolock              00000001800181e0 f   libucrt:close.obj
 0001:0001729c       ?__acrt_stdio_free_stream@@YAXV__crt_stdio_stream@@@Z 000000018001829c f   libucrt:stream.obj
 0001:000172b8       __dcrt_lowio_ensure_console_output_initialized 00000001800182b8 f   libucrt:initcon.obj
 0001:0001730c       __dcrt_terminate_console_output 000000018001830c f   libucrt:initcon.obj
 0001:00017328       __dcrt_write_console_w     0000000180018328 f   libucrt:initcon.obj
 0001:00017400       _get_fpsr                  0000000180018400 f   libucrt:fpsr.obj
 0001:00017410       _set_fpsr                  0000000180018410 f   libucrt:fpsr.obj
 0001:0001741a       _fclrf                     000000018001841a f   libucrt:fpsr.obj
 0001:0001742e       _frnd                      000000018001842e f   libucrt:fpsr.obj
 0001:00017450       _raise_exc                 0000000180018450 f   libucrt:fpexcept.obj
 0001:00017478       _raise_exc_ex              0000000180018478 f   libucrt:fpexcept.obj
 0001:00017780       _set_errno_from_matherr    0000000180018780 f   libucrt:fpexcept.obj
 0001:000177b0       _clrfp                     00000001800187b0 f   libucrt:fpctrl.obj
 0001:000177d0       _ctrlfp                    00000001800187d0 f   libucrt:fpctrl.obj
 0001:0001784c       _set_statfp                000000018001884c f   libucrt:fpctrl.obj
 0001:0001786c       _statfp                    000000018001886c f   libucrt:fpctrl.obj
 0001:0001787d       IsProcessorFeaturePresent  000000018001887d f   kernel32:KERNEL32.dll
 0001:00017884       ?DloadAcquireSectionWriteAccess@@YAXXZ 0000000180018884 f i DelayImp:delayhlp.obj
 0001:00017930       ?DloadGetSRWLockFunctionPointers@@YAEXZ 0000000180018930 f i DelayImp:delayhlp.obj
 0001:000179cc       ?DloadMakePermanentImageCommit@@YAXPEAX_K@Z 00000001800189cc f i DelayImp:delayhlp.obj
 0001:00017a64       ?DloadObtainSection@@YAPEAXPEAK0@Z 0000000180018a64 f i DelayImp:delayhlp.obj
 0001:00017b00       ?DloadProtectSection@@YAXKPEAK@Z 0000000180018b00 f i DelayImp:delayhlp.obj
 0001:00017b90       ?DloadReleaseSectionWriteAccess@@YAXXZ 0000000180018b90 f i DelayImp:delayhlp.obj
 0001:00017c24       __delayLoadHelper2         0000000180018c24 f   DelayImp:delayhlp.obj
 0001:00017ef0       _FindPESection             0000000180018ef0 f   LIBCMT:pesect.obj
 0001:00017f40       _IsNonwritableInCurrentImage 0000000180018f40 f   LIBCMT:pesect.obj
 0001:00017f90       _ValidateImageBase         0000000180018f90 f   LIBCMT:pesect.obj
 0001:00017fc0       __GSHandlerCheck           0000000180018fc0 f   LIBCMT:gshandler.obj
 0001:00017fe0       __GSHandlerCheckCommon     0000000180018fe0 f   LIBCMT:gshandler.obj
 0001:00018050       _alloca_probe              0000000180019050 f   LIBCMT:chkstk.obj
 0001:00018050       __chkstk                   0000000180019050 f   LIBCMT:chkstk.obj
 0001:000180a4       strrchr                    00000001800190a4 f   libvcruntime:strrchr.obj
 0001:00018200       memcmp                     0000000180019200 f   libvcruntime:memcmp.obj
 0001:000182e0       _guard_dispatch_icall_nop  00000001800192e0 f   LIBCMT:guard_dispatch.obj
 0002:00000000       __imp_GetModuleHandleA     000000018001a000     kernel32:KERNEL32.dll
 0002:00000008       __imp_LoadLibraryExA       000000018001a008     kernel32:KERNEL32.dll
 0002:00000010       __imp_RtlCaptureContext    000000018001a010     kernel32:KERNEL32.dll
 0002:00000018       __imp_RtlLookupFunctionEntry 000000018001a018     kernel32:KERNEL32.dll
 0002:00000020       __imp_RtlVirtualUnwind     000000018001a020     kernel32:KERNEL32.dll
 0002:00000028       __imp_UnhandledExceptionFilter 000000018001a028     kernel32:KERNEL32.dll
 0002:00000030       __imp_SetUnhandledExceptionFilter 000000018001a030     kernel32:KERNEL32.dll
 0002:00000038       __imp_GetCurrentProcess    000000018001a038     kernel32:KERNEL32.dll
 0002:00000040       __imp_TerminateProcess     000000018001a040     kernel32:KERNEL32.dll
 0002:00000048       __imp_IsProcessorFeaturePresent 000000018001a048     kernel32:KERNEL32.dll
 0002:00000050       __imp_QueryPerformanceCounter 000000018001a050     kernel32:KERNEL32.dll
 0002:00000058       __imp_GetCurrentProcessId  000000018001a058     kernel32:KERNEL32.dll
 0002:00000060       __imp_GetCurrentThreadId   000000018001a060     kernel32:KERNEL32.dll
 0002:00000068       __imp_GetSystemTimeAsFileTime 000000018001a068     kernel32:KERNEL32.dll
 0002:00000070       __imp_InitializeSListHead  000000018001a070     kernel32:KERNEL32.dll
 0002:00000078       __imp_IsDebuggerPresent    000000018001a078     kernel32:KERNEL32.dll
 0002:00000080       __imp_GetStartupInfoW      000000018001a080     kernel32:KERNEL32.dll
 0002:00000088       __imp_GetModuleHandleW     000000018001a088     kernel32:KERNEL32.dll
 0002:00000090       __imp_RtlUnwindEx          000000018001a090     kernel32:KERNEL32.dll
 0002:00000098       __imp_RtlPcToFileHeader    000000018001a098     kernel32:KERNEL32.dll
 0002:000000a0       __imp_RaiseException       000000018001a0a0     kernel32:KERNEL32.dll
 0002:000000a8       __imp_InterlockedFlushSList 000000018001a0a8     kernel32:KERNEL32.dll
 0002:000000b0       __imp_GetLastError         000000018001a0b0     kernel32:KERNEL32.dll
 0002:000000b8       __imp_SetLastError         000000018001a0b8     kernel32:KERNEL32.dll
 0002:000000c0       __imp_EnterCriticalSection 000000018001a0c0     kernel32:KERNEL32.dll
 0002:000000c8       __imp_LeaveCriticalSection 000000018001a0c8     kernel32:KERNEL32.dll
 0002:000000d0       __imp_DeleteCriticalSection 000000018001a0d0     kernel32:KERNEL32.dll
 0002:000000d8       __imp_InitializeCriticalSectionAndSpinCount 000000018001a0d8     kernel32:KERNEL32.dll
 0002:000000e0       __imp_TlsAlloc             000000018001a0e0     kernel32:KERNEL32.dll
 0002:000000e8       __imp_TlsGetValue          000000018001a0e8     kernel32:KERNEL32.dll
 0002:000000f0       __imp_TlsSetValue          000000018001a0f0     kernel32:KERNEL32.dll
 0002:000000f8       __imp_TlsFree              000000018001a0f8     kernel32:KERNEL32.dll
 0002:00000100       __imp_FreeLibrary          000000018001a100     kernel32:KERNEL32.dll
 0002:00000108       __imp_GetProcAddress       000000018001a108     kernel32:KERNEL32.dll
 0002:00000110       __imp_LoadLibraryExW       000000018001a110     kernel32:KERNEL32.dll
 0002:00000118       __imp_GetStdHandle         000000018001a118     kernel32:KERNEL32.dll
 0002:00000120       __imp_GetFileType          000000018001a120     kernel32:KERNEL32.dll
 0002:00000128       __imp_GetModuleFileNameA   000000018001a128     kernel32:KERNEL32.dll
 0002:00000130       __imp_GetModuleFileNameW   000000018001a130     kernel32:KERNEL32.dll
 0002:00000138       __imp_GetModuleHandleExW   000000018001a138     kernel32:KERNEL32.dll
 0002:00000140       __imp_WriteConsoleW        000000018001a140     kernel32:KERNEL32.dll
 0002:00000148       __imp_ExitProcess          000000018001a148     kernel32:KERNEL32.dll
 0002:00000150       __imp_MultiByteToWideChar  000000018001a150     kernel32:KERNEL32.dll
 0002:00000158       __imp_WideCharToMultiByte  000000018001a158     kernel32:KERNEL32.dll
 0002:00000160       __imp_HeapFree             000000018001a160     kernel32:KERNEL32.dll
 0002:00000168       __imp_HeapAlloc            000000018001a168     kernel32:KERNEL32.dll
 0002:00000170       __imp_GetACP               000000018001a170     kernel32:KERNEL32.dll
 0002:00000178       __imp_WriteFile            000000018001a178     kernel32:KERNEL32.dll
 0002:00000180       __imp_FindClose            000000018001a180     kernel32:KERNEL32.dll
 0002:00000188       __imp_FindFirstFileExA     000000018001a188     kernel32:KERNEL32.dll
 0002:00000190       __imp_FindNextFileA        000000018001a190     kernel32:KERNEL32.dll
 0002:00000198       __imp_IsValidCodePage      000000018001a198     kernel32:KERNEL32.dll
 0002:000001a0       __imp_GetOEMCP             000000018001a1a0     kernel32:KERNEL32.dll
 0002:000001a8       __imp_GetCPInfo            000000018001a1a8     kernel32:KERNEL32.dll
 0002:000001b0       __imp_GetCommandLineA      000000018001a1b0     kernel32:KERNEL32.dll
 0002:000001b8       __imp_GetCommandLineW      000000018001a1b8     kernel32:KERNEL32.dll
 0002:000001c0       __imp_GetEnvironmentStringsW 000000018001a1c0     kernel32:KERNEL32.dll
 0002:000001c8       __imp_FreeEnvironmentStringsW 000000018001a1c8     kernel32:KERNEL32.dll
 0002:000001d0       __imp_OutputDebugStringW   000000018001a1d0     kernel32:KERNEL32.dll
 0002:000001d8       __imp_LCMapStringW         000000018001a1d8     kernel32:KERNEL32.dll
 0002:000001e0       __imp_GetProcessHeap       000000018001a1e0     kernel32:KERNEL32.dll
 0002:000001e8       __imp_GetStringTypeW       000000018001a1e8     kernel32:KERNEL32.dll
 0002:000001f0       __imp_SetStdHandle         000000018001a1f0     kernel32:KERNEL32.dll
 0002:000001f8       __imp_FlushFileBuffers     000000018001a1f8     kernel32:KERNEL32.dll
 0002:00000200       __imp_GetConsoleCP         000000018001a200     kernel32:KERNEL32.dll
 0002:00000208       __imp_GetConsoleMode       000000018001a208     kernel32:KERNEL32.dll
 0002:00000210       __imp_HeapSize             000000018001a210     kernel32:KERNEL32.dll
 0002:00000218       __imp_HeapReAlloc          000000018001a218     kernel32:KERNEL32.dll
 0002:00000220       __imp_SetFilePointerEx     000000018001a220     kernel32:KERNEL32.dll
 0002:00000228       __imp_CloseHandle          000000018001a228     kernel32:KERNEL32.dll
 0002:00000230       __imp_CreateFileW          000000018001a230     kernel32:KERNEL32.dll
 0002:00000238       __imp_GetSystemInfo        000000018001a238     kernel32:KERNEL32.dll
 0002:00000240       __imp_VirtualProtect       000000018001a240     kernel32:KERNEL32.dll
 0002:00000248       __imp_VirtualQuery         000000018001a248     kernel32:KERNEL32.dll
 0002:00000250       \177KERNEL32_NULL_THUNK_DATA 000000018001a250     kernel32:KERNEL32.dll
 0002:00000258       __guard_check_icall_fptr   000000018001a258     LIBCMT:guard_support.obj
 0002:00000260       __guard_dispatch_icall_fptr 000000018001a260     LIBCMT:guard_support.obj
 0002:00000268       __xc_a                     000000018001a268     LIBCMT:initializers.obj
 0002:00000270       _register_bcrypt_lib_      000000018001a270     bcrypt_node.obj
 0002:00000278       __xc_z                     000000018001a278     LIBCMT:initializers.obj
 0002:00000280       __xi_a                     000000018001a280     LIBCMT:initializers.obj
 0002:00000288       __acrt_stdio_initializer   000000018001a288     libucrt:stdio_initializer.obj
 0002:00000290       __acrt_multibyte_initializer 000000018001a290     libucrt:multibyte_initializer.obj
 0002:00000298       __acrt_tran_fma3_initializer 000000018001a298     libucrt:fma3_initializer.obj
 0002:000002a0       __xi_z                     000000018001a2a0     LIBCMT:initializers.obj
 0002:000002a8       __xp_a                     000000018001a2a8     LIBCMT:initializers.obj
 0002:000002b0       __acrt_locale_terminator   000000018001a2b0     libucrt:locale_initializer.obj
 0002:000002b8       __dcrt_console_output_terminator 000000018001a2b8     libucrt:console_output_initializer.obj
 0002:000002c0       __acrt_stdio_terminator    000000018001a2c0     libucrt:stdio_initializer.obj
 0002:000002c8       __xp_z                     000000018001a2c8     LIBCMT:initializers.obj
 0002:000002d0       __xt_a                     000000018001a2d0     LIBCMT:initializers.obj
 0002:000002d8       __xt_z                     000000018001a2d8     LIBCMT:initializers.obj
 0002:000002e0       __sz_node_exe              000000018001a2e0     node:node.exe
 0002:000002f0       _pDefaultRawDllMain        000000018001a2f0     LIBCMT:dll_dllmain.obj
 0002:000002f0       _pRawDllMain               000000018001a2f0     LIBCMT:dll_dllmain.obj
 0002:00000310       ??_7exception@std@@6B@     000000018001a310     LIBCMT:throw_bad_alloc.obj
 0002:00000320       ??_C@_0BC@EOODALEL@Unknown?5exception@ 000000018001a320     LIBCMT:throw_bad_alloc.obj
 0002:00000340       ??_7bad_alloc@std@@6B@     000000018001a340     LIBCMT:throw_bad_alloc.obj
 0002:00000350       ??_C@_0P@GHFPNOJB@bad?5allocation@ 000000018001a350     LIBCMT:throw_bad_alloc.obj
 0002:00000368       ??_7bad_array_new_length@std@@6B@ 000000018001a368     LIBCMT:throw_bad_alloc.obj
 0002:00000378       ??_C@_0BF@KINCDENJ@bad?5array?5new?5length@ 000000018001a378     LIBCMT:throw_bad_alloc.obj
 0002:00000398       ??_7type_info@@6B@         000000018001a398     LIBCMT:std_type_info_static.obj
 0002:000003a8       ??_7logic_error@std@@6B@   000000018001a3a8     libcpmt:xthrow.obj
 0002:000003c0       ??_7length_error@std@@6B@  000000018001a3c0     libcpmt:xthrow.obj
 0002:00000410       _pDestructExceptionObject  000000018001a410     libvcruntime:ehhelpers.obj
 0002:00000758       ??_C@_08EHJDFFNH@__based?$CI@ 000000018001a758     libvcruntime:undname.obj
 0002:00000768       ??_C@_07KOLFKCDI@__cdecl@  000000018001a768     libvcruntime:undname.obj
 0002:00000770       ??_C@_08GHMPAG@__pascal@   000000018001a770     libvcruntime:undname.obj
 0002:00000780       ??_C@_09IFJBGAPI@__stdcall@ 000000018001a780     libvcruntime:undname.obj
 0002:00000790       ??_C@_0L@NPHFGOKO@__thiscall@ 000000018001a790     libvcruntime:undname.obj
 0002:000007a0       ??_C@_0L@JMKHOMEK@__fastcall@ 000000018001a7a0     libvcruntime:undname.obj
 0002:000007b0       ??_C@_0N@BCKKPABJ@__vectorcall@ 000000018001a7b0     libvcruntime:undname.obj
 0002:000007c0       ??_C@_09HIJEGCPM@__clrcall@ 000000018001a7c0     libvcruntime:undname.obj
 0002:000007cc       ??_C@_06GHPCKEAG@__eabi@   000000018001a7cc     libvcruntime:undname.obj
 0002:000007d8       ??_C@_09IOPIDJLG@__swift_1@ 000000018001a7d8     libvcruntime:undname.obj
 0002:000007e8       ??_C@_09KFNFGKHF@__swift_2@ 000000018001a7e8     libvcruntime:undname.obj
 0002:000007f8       ??_C@_07JOMMBBKO@__ptr64@  000000018001a7f8     libvcruntime:undname.obj
 0002:00000800       ??_C@_0L@PILCLIHE@__restrict@ 000000018001a800     libvcruntime:undname.obj
 0002:00000810       ??_C@_0M@GFIIJFMG@__unaligned@ 000000018001a810     libvcruntime:undname.obj
 0002:00000820       ??_C@_09DHDLOLLB@restrict?$CI@ 000000018001a820     libvcruntime:undname.obj
 0002:0000082a       ??_C@_00CNPNBAHC@@         000000018001a82a     libvcruntime:undname.obj
 0002:0000082c       ??_C@_04NIHEBCM@?5new@     000000018001a82c     libvcruntime:undname.obj
 0002:00000838       ??_C@_07FPCDHGMM@?5delete@ 000000018001a838     libvcruntime:undname.obj
 0002:00000840       ??_C@_01NEMOKFLO@?$DN@     000000018001a840     libvcruntime:undname.obj
 0002:00000844       ??_C@_02GPIOPFAK@?$DO?$DO@ 000000018001a844     libvcruntime:undname.obj
 0002:00000848       ??_C@_02FODMEDOG@?$DM?$DM@ 000000018001a848     libvcruntime:undname.obj
 0002:0000084c       ??_C@_01DCLJPIOD@?$CB@     000000018001a84c     libvcruntime:undname.obj
 0002:00000850       ??_C@_02EGOFBIJA@?$DN?$DN@ 000000018001a850     libvcruntime:undname.obj
 0002:00000854       ??_C@_02FDNJECIE@?$CB?$DN@ 000000018001a854     libvcruntime:undname.obj
 0002:00000858       ??_C@_02GPECMEKF@?$FL?$FN@ 000000018001a858     libvcruntime:undname.obj
 0002:00000860       ??_C@_08LHJFAFGD@operator@ 000000018001a860     libvcruntime:undname.obj
 0002:0000086c       ??_C@_02HBOOOICD@?9?$DO@   000000018001a86c     libvcruntime:undname.obj
 0002:00000870       ??_C@_01NBENCBCI@?$CK@     000000018001a870     libvcruntime:undname.obj
 0002:00000874       ??_C@_02ECNGHCIF@?$CL?$CL@ 000000018001a874     libvcruntime:undname.obj
 0002:00000878       ??_C@_02BAABKJLB@?9?9@     000000018001a878     libvcruntime:undname.obj
 0002:0000087c       ??_C@_01JOAMLHOP@?9@       000000018001a87c     libvcruntime:undname.obj
 0002:00000880       ??_C@_01MIFGBAGJ@?$CL@     000000018001a880     libvcruntime:undname.obj
 0002:00000884       ??_C@_01HNPIGOCE@?$CG@     000000018001a884     libvcruntime:undname.obj
 0002:00000888       ??_C@_03MNHNFDLC@?9?$DO?$CK@ 000000018001a888     libvcruntime:undname.obj
 0002:0000088c       ??_C@_01KMDKNFGN@?1@       000000018001a88c     libvcruntime:undname.obj
 0002:00000890       ??_C@_01FGNFDNOH@?$CF@     000000018001a890     libvcruntime:undname.obj
 0002:00000894       ??_C@_01MNNFJEPP@?$DM@     000000018001a894     libvcruntime:undname.obj
 0002:00000898       ??_C@_02EHCHHCKH@?$DM?$DN@ 000000018001a898     libvcruntime:undname.obj
 0002:0000089c       ??_C@_01PPODPGHN@?$DO@     000000018001a89c     libvcruntime:undname.obj
 0002:000008a0       ??_C@_02EEKDKGMJ@?$DO?$DN@ 000000018001a8a0     libvcruntime:undname.obj
 0002:000008a4       ??_C@_01IHBHIGKO@?0@       000000018001a8a4     libvcruntime:undname.obj
 0002:000008a8       ??_C@_02HCKGKOFO@?$CI?$CJ@ 000000018001a8a8     libvcruntime:undname.obj
 0002:000008ac       ??_C@_01PJKLJHI@?$HO@      000000018001a8ac     libvcruntime:undname.obj
 0002:000008b0       ??_C@_01JKBOJNNK@?$FO@     000000018001a8b0     libvcruntime:undname.obj
 0002:000008b4       ??_C@_01DNKMNLPK@?$HM@     000000018001a8b4     libvcruntime:undname.obj
 0002:000008b8       ??_C@_02PPKAJPJL@?$CG?$CG@ 000000018001a8b8     libvcruntime:undname.obj
 0002:000008bc       ??_C@_02NONPIBCD@?$HM?$HM@ 000000018001a8bc     libvcruntime:undname.obj
 0002:000008c0       ??_C@_02FPIMKNGF@?$CK?$DN@ 000000018001a8c0     libvcruntime:undname.obj
 0002:000008c4       ??_C@_02FOEOMHFC@?$CL?$DN@ 000000018001a8c4     libvcruntime:undname.obj
 0002:000008c8       ??_C@_02FKMDLLOA@?9?$DN@   000000018001a8c8     libvcruntime:undname.obj
 0002:000008cc       ??_C@_02FJEHGPIO@?1?$DN@   000000018001a8cc     libvcruntime:undname.obj
 0002:000008d0       ??_C@_02FENAOKFI@?$CF?$DN@ 000000018001a8d0     libvcruntime:undname.obj
 0002:000008d4       ??_C@_03IKFCCPFF@?$DO?$DO?$DN@ 000000018001a8d4     libvcruntime:undname.obj
 0002:000008d8       ??_C@_03CDNPDDLA@?$DM?$DM?$DN@ 000000018001a8d8     libvcruntime:undname.obj
 0002:000008dc       ??_C@_02FGJGFEAB@?$CG?$DN@ 000000018001a8dc     libvcruntime:undname.obj
 0002:000008e0       ??_C@_02DHLNPPGH@?$HM?$DN@ 000000018001a8e0     libvcruntime:undname.obj
 0002:000008e4       ??_C@_02MHEGNOJ@?$FO?$DN@  000000018001a8e4     libvcruntime:undname.obj
 0002:000008e8       ??_C@_09IFPLHPGF@?$GAvftable?8@ 000000018001a8e8     libvcruntime:undname.obj
 0002:000008f8       ??_C@_09BLBHBJP@?$GAvbtable?8@ 000000018001a8f8     libvcruntime:undname.obj
 0002:00000908       ??_C@_07FEEIOKP@?$GAvcall?8@ 000000018001a908     libvcruntime:undname.obj
 0002:00000910       ??_C@_08LLFFHHDJ@?$GAtypeof?8@ 000000018001a910     libvcruntime:undname.obj
 0002:00000920       ??_C@_0BF@KDPPACIK@?$GAlocal?5static?5guard?8@ 000000018001a920     libvcruntime:undname.obj
 0002:00000938       ??_C@_08OBABFOLI@?$GAstring?8@ 000000018001a938     libvcruntime:undname.obj
 0002:00000948       ??_C@_0BD@JDLKDPAB@?$GAvbase?5destructor?8@ 000000018001a948     libvcruntime:undname.obj
 0002:00000960       ??_C@_0BN@DEGPLNFK@?$GAvector?5deleting?5destructor?8@ 000000018001a960     libvcruntime:undname.obj
 0002:00000980       ??_C@_0BO@OBMKPJIG@?$GAdefault?5constructor?5closure?8@ 000000018001a980     libvcruntime:undname.obj
 0002:000009a0       ??_C@_0BN@IMDCHIKM@?$GAscalar?5deleting?5destructor?8@ 000000018001a9a0     libvcruntime:undname.obj
 0002:000009c0       ??_C@_0BO@PFGOCPJJ@?$GAvector?5constructor?5iterator?8@ 000000018001a9c0     libvcruntime:undname.obj
 0002:000009e0       ??_C@_0BN@LFPFMEDL@?$GAvector?5destructor?5iterator?8@ 000000018001a9e0     libvcruntime:undname.obj
 0002:00000a00       ??_C@_0CE@IKBNEHA@?$GAvector?5vbase?5constructor?5itera@ 000000018001aa00     libvcruntime:undname.obj
 0002:00000a28       ??_C@_0BL@NILFHHPC@?$GAvirtual?5displacement?5map?8@ 000000018001aa28     libvcruntime:undname.obj
 0002:00000a48       ??_C@_0CB@JONCMFFK@?$GAeh?5vector?5constructor?5iterator@ 000000018001aa48     libvcruntime:undname.obj
 0002:00000a70       ??_C@_0CA@GCEOPDGL@?$GAeh?5vector?5destructor?5iterator?8@ 000000018001aa70     libvcruntime:undname.obj
 0002:00000a90       ??_C@_0CH@OOJPLCPH@?$GAeh?5vector?5vbase?5constructor?5it@ 000000018001aa90     libvcruntime:undname.obj
 0002:00000ab8       ??_C@_0BL@LLKPOHJI@?$GAcopy?5constructor?5closure?8@ 000000018001aab8     libvcruntime:undname.obj
 0002:00000ad8       ??_C@_0BA@KBCDOMBN@?$GAudt?5returning?8@ 000000018001aad8     libvcruntime:undname.obj
 0002:00000ae8       ??_C@_03KLGMFNMG@?$GAEH@   000000018001aae8     libvcruntime:undname.obj
 0002:00000aec       ??_C@_05KHLCHHI@?$GARTTI@  000000018001aaec     libvcruntime:undname.obj
 0002:00000af8       ??_C@_0BA@KKLDJDLB@?$GAlocal?5vftable?8@ 000000018001aaf8     libvcruntime:undname.obj
 0002:00000b08       ??_C@_0CE@IIHCMGGL@?$GAlocal?5vftable?5constructor?5clos@ 000000018001ab08     libvcruntime:undname.obj
 0002:00000b2c       ??_C@_06FHBGPFGH@?5new?$FL?$FN@ 000000018001ab2c     libvcruntime:undname.obj
 0002:00000b38       ??_C@_09LBNFPBCA@?5delete?$FL?$FN@ 000000018001ab38     libvcruntime:undname.obj
 0002:00000b48       ??_C@_0P@HJKNJFNN@?$GAomni?5callsig?8@ 000000018001ab48     libvcruntime:undname.obj
 0002:00000b58       ??_C@_0BL@CNOONJFP@?$GAplacement?5delete?5closure?8@ 000000018001ab58     libvcruntime:undname.obj
 0002:00000b78       ??_C@_0BN@CKNJLHMB@?$GAplacement?5delete?$FL?$FN?5closure?8@ 000000018001ab78     libvcruntime:undname.obj
 0002:00000b98       ??_C@_0CG@CFDHKGGD@?$GAmanaged?5vector?5constructor?5ite@ 000000018001ab98     libvcruntime:undname.obj
 0002:00000bc0       ??_C@_0CF@IMGKMJNO@?$GAmanaged?5vector?5destructor?5iter@ 000000018001abc0     libvcruntime:undname.obj
 0002:00000be8       ??_C@_0CG@HLDDJMAG@?$GAeh?5vector?5copy?5constructor?5ite@ 000000018001abe8     libvcruntime:undname.obj
 0002:00000c10       ??_C@_0CM@FCBBDIGB@?$GAeh?5vector?5vbase?5copy?5construct@ 000000018001ac10     libvcruntime:undname.obj
 0002:00000c40       ??_C@_0BL@CLIPGLGB@?$GAdynamic?5initializer?5for?5?8@ 000000018001ac40     libvcruntime:undname.obj
 0002:00000c60       ??_C@_0CB@PDBIFEP@?$GAdynamic?5atexit?5destructor?5for?5@ 000000018001ac60     libvcruntime:undname.obj
 0002:00000c88       ??_C@_0CD@CGAJBKEJ@?$GAvector?5copy?5constructor?5iterat@ 000000018001ac88     libvcruntime:undname.obj
 0002:00000cb0       ??_C@_0CJ@GJELGAMM@?$GAvector?5vbase?5copy?5constructor?5@ 000000018001acb0     libvcruntime:undname.obj
 0002:00000ce0       ??_C@_0CL@FGIJHLCE@?$GAmanaged?5vector?5copy?5constructo@ 000000018001ace0     libvcruntime:undname.obj
 0002:00000d10       ??_C@_0BM@PMGGMLDN@?$GAlocal?5static?5thread?5guard?8@ 000000018001ad10     libvcruntime:undname.obj
 0002:00000d30       ??_C@_0N@BDNMDMOL@operator?5?$CC?$CC?5@ 000000018001ad30     libvcruntime:undname.obj
 0002:00000d40       ??_C@_0BC@GGEBGALA@operator?5co_await@ 000000018001ad40     libvcruntime:undname.obj
 0002:00000d58       ??_C@_0BC@DAFEJGAK@?5Type?5Descriptor?8@ 000000018001ad58     libvcruntime:undname.obj
 0002:00000d70       ??_C@_0BM@LDKODKLH@?5Base?5Class?5Descriptor?5at?5?$CI@ 000000018001ad70     libvcruntime:undname.obj
 0002:00000d90       ??_C@_0BD@LGICGFMM@?5Base?5Class?5Array?8@ 000000018001ad90     libvcruntime:undname.obj
 0002:00000da8       ??_C@_0BN@MECKDCOJ@?5Class?5Hierarchy?5Descriptor?8@ 000000018001ada8     libvcruntime:undname.obj
 0002:00000dc8       ??_C@_0BK@CFCOFLF@?5Complete?5Object?5Locator?8@ 000000018001adc8     libvcruntime:undname.obj
 0002:00000e00       ??_C@_1DM@KHCHBNEB@?$AAa?$AAp?$AAi?$AA?9?$AAm?$AAs?$AA?9?$AAw?$AAi?$AAn?$AA?9?$AAc?$AAo?$AAr?$AAe@ 000000018001ae00     libvcruntime:winapi_downlevel.obj
 0002:00000e40       ??_C@_1DK@LPPGFMPP@?$AAa?$AAp?$AAi?$AA?9?$AAm?$AAs?$AA?9?$AAw?$AAi?$AAn?$AA?9?$AAc?$AAo?$AAr?$AAe@ 000000018001ae40     libvcruntime:winapi_downlevel.obj
 0002:00000e80       ??_C@_1BC@GDMECMAK@?$AAk?$AAe?$AAr?$AAn?$AAe?$AAl?$AA3?$AA2@ 000000018001ae80     libvcruntime:winapi_downlevel.obj
 0002:00000e98       ??_C@_1BA@PFFKHIOG@?$AAa?$AAp?$AAi?$AA?9?$AAm?$AAs?$AA?9@ 000000018001ae98     libvcruntime:winapi_downlevel.obj
 0002:00000ea8       ??_C@_1BA@IAIFMGEF@?$AAe?$AAx?$AAt?$AA?9?$AAm?$AAs?$AA?9@ 000000018001aea8     libvcruntime:winapi_downlevel.obj
 0002:00000ec0       ??_C@_08KNHFBNJ@FlsAlloc@  000000018001aec0     libvcruntime:winapi_downlevel.obj
 0002:00000ed8       ??_C@_07PEJMOBNF@FlsFree@  000000018001aed8     libvcruntime:winapi_downlevel.obj
 0002:00000ee8       ??_C@_0M@GDNOONDI@FlsGetValue@ 000000018001aee8     libvcruntime:winapi_downlevel.obj
 0002:00000f00       ??_C@_0M@JCPCPOEF@FlsSetValue@ 000000018001af00     libvcruntime:winapi_downlevel.obj
 0002:00000f18       ??_C@_0BM@HCFOFFN@InitializeCriticalSectionEx@ 000000018001af18     libvcruntime:winapi_downlevel.obj
 0002:00000f40       standard_lookup_table      000000018001af40     libucrt:output.obj
 0002:00000fa0       ??_C@_1O@CEDCILHN@?$AA?$CI?$AAn?$AAu?$AAl?$AAl?$AA?$CJ?$AA?$AA@ 000000018001afa0     libucrt:output.obj
 0002:00000fb0       ??_C@_06OJHGLDPL@?$CInull?$CJ?$AA@ 000000018001afb0     libucrt:output.obj
 0002:00000fc0       ??_C@_1FE@LHBLIKM@?$AAA?$AAs?$AAs?$AAe?$AAr?$AAt?$AAi?$AAo?$AAn?$AA?5?$AAf?$AAa?$AAi?$AAl?$AAe?$AAd?$AA?3?$AA?5?$AA?$CF?$AAT?$AAs?$AA?0?$AA?5?$AAf?$AAi?$AAl?$AAe?$AA?5?$AA?$CF?$AAT?$AAs?$AA?0@ 000000018001afc0     libucrt:assert.obj
 0002:00001020       ??_C@_1EK@MBDPDCGA@?$AAM?$AAi?$AAc?$AAr?$AAo?$AAs?$AAo?$AAf?$AAt?$AA?5?$AAV?$AAi?$AAs?$AAu?$AAa?$AAl?$AA?5?$AAC?$AA?$CL?$AA?$CL?$AA?5?$AAR?$AAu?$AAn?$AAt?$AAi?$AAm?$AAe?$AA?5?$AAL?$AAi?$AAb@ 000000018001b020     libucrt:assert.obj
 0002:00001070       ??_C@_1CE@OJBNHDMO@?$AAA?$AAs?$AAs?$AAe?$AAr?$AAt?$AAi?$AAo?$AAn?$AA?5?$AAf?$AAa?$AAi?$AAl?$AAe?$AAd?$AA?$CB?$AA?$AA@ 000000018001b070     libucrt:assert.obj
 0002:00001098       ??_C@_1BE@PHKBBGE@?$AAP?$AAr?$AAo?$AAg?$AAr?$AAa?$AAm?$AA?3?$AA?5?$AA?$AA@ 000000018001b098     libucrt:assert.obj
 0002:000010b0       ??_C@_1O@HEMHKNDC@?$AAF?$AAi?$AAl?$AAe?$AA?3?$AA?5?$AA?$AA@ 000000018001b0b0     libucrt:assert.obj
 0002:000010c0       ??_C@_1O@KCAFKHJE@?$AAL?$AAi?$AAn?$AAe?$AA?3?$AA?5?$AA?$AA@ 000000018001b0c0     libucrt:assert.obj
 0002:000010d0       ??_C@_1BK@PEDCIPMA@?$AAE?$AAx?$AAp?$AAr?$AAe?$AAs?$AAs?$AAi?$AAo?$AAn?$AA?3?$AA?5?$AA?$AA@ 000000018001b0d0     libucrt:assert.obj
 0002:000010f0       ??_C@_1OA@EGMLFBHJ@?$AAF?$AAo?$AAr?$AA?5?$AAi?$AAn?$AAf?$AAo?$AAr?$AAm?$AAa?$AAt?$AAi?$AAo?$AAn?$AA?5?$AAo?$AAn?$AA?5?$AAh?$AAo?$AAw?$AA?5?$AAy?$AAo?$AAu?$AAr?$AA?5?$AAp?$AAr?$AAo?$AAg@ 000000018001b0f0     libucrt:assert.obj
 0002:000011d0       ??_C@_1HK@POCJMFGK@?$AA?$CI?$AAP?$AAr?$AAe?$AAs?$AAs?$AA?5?$AAR?$AAe?$AAt?$AAr?$AAy?$AA?5?$AAt?$AAo?$AA?5?$AAd?$AAe?$AAb?$AAu?$AAg?$AA?5?$AAt?$AAh?$AAe?$AA?5?$AAa?$AAp?$AAp?$AAl?$AAi?$AAc@ 000000018001b1d0     libucrt:assert.obj
 0002:00001250       ??_C@_17LGKOMLJ@?$AA?4?$AA?4?$AA?4?$AA?$AA@ 000000018001b250     libucrt:assert.obj
 0002:00001258       ??_C@_13LBAGMAIH@?$AA?6?$AA?$AA@ 000000018001b258     libucrt:assert.obj
 0002:0000125c       ??_C@_15IABLJNFO@?$AA?6?$AA?6?$AA?$AA@ 000000018001b25c     libucrt:assert.obj
 0002:00001268       ??_C@_1CO@EAEJAADC@?$AA?$DM?$AAp?$AAr?$AAo?$AAg?$AAr?$AAa?$AAm?$AA?5?$AAn?$AAa?$AAm?$AAe?$AA?5?$AAu?$AAn?$AAk?$AAn?$AAo?$AAw?$AAn?$AA?$DO?$AA?$AA@ 000000018001b268     libucrt:assert.obj
 0002:000012a0       __acrt_exception_action_table 000000018001b2a0     libucrt:exception_filter.obj
 0002:00001360       __acrt_signal_action_table_count 000000018001b360     libucrt:exception_filter.obj
 0002:00001368       __acrt_signal_action_first_fpe_index 000000018001b368     libucrt:exception_filter.obj
 0002:00001370       __acrt_signal_action_fpe_count 000000018001b370     libucrt:exception_filter.obj
 0002:00001378       ??_C@_1BI@BGOHAHKC@?$AAm?$AAs?$AAc?$AAo?$AAr?$AAe?$AAe?$AA?4?$AAd?$AAl?$AAl?$AA?$AA@ 000000018001b378     libucrt:exit.obj
 0002:00001390       ??_C@_0P@MIGLKIOC@CorExitProcess?$AA@ 000000018001b390     libucrt:exit.obj
 0002:00001600       ??_C@_03OEIAHPBN@INF?$AA@  000000018001b600     libucrt:cvt.obj
 0002:00001604       ??_C@_03OJHLLCGB@inf?$AA@  000000018001b604     libucrt:cvt.obj
 0002:00001608       ??_C@_03LKNCIKJB@NAN?$AA@  000000018001b608     libucrt:cvt.obj
 0002:0000160c       ??_C@_03LHCJEHON@nan?$AA@  000000018001b60c     libucrt:cvt.obj
 0002:00001610       ??_C@_09OFJJIMPC@NAN?$CISNAN?$CJ?$AA@ 000000018001b610     libucrt:cvt.obj
 0002:00001620       ??_C@_09IPFBKMDL@nan?$CIsnan?$CJ?$AA@ 000000018001b620     libucrt:cvt.obj
 0002:00001630       ??_C@_08IKHNHAJ@NAN?$CIIND?$CJ?$AA@ 000000018001b630     libucrt:cvt.obj
 0002:00001640       ??_C@_08OFCDMILK@nan?$CIind?$CJ?$AA@ 000000018001b640     libucrt:cvt.obj
 0002:0000164c       ??_C@_05KLBDPFGC@e?$CL000?$AA@ 000000018001b64c     libucrt:cvt.obj
 0002:00001660       __lc_time_c                000000018001b660     libucrt:nlsdata.obj
 0002:00001920       ??_C@_03KOEHGMDN@Sun?$AA@  000000018001b920     libucrt:nlsdata.obj
 0002:00001924       ??_C@_03PDAGKDH@Mon?$AA@   000000018001b924     libucrt:nlsdata.obj
 0002:00001928       ??_C@_03NAGEINEP@Tue?$AA@  000000018001b928     libucrt:nlsdata.obj
 0002:0000192c       ??_C@_03MHOMLAJA@Wed?$AA@  000000018001b92c     libucrt:nlsdata.obj
 0002:00001930       ??_C@_03IOFIKPDN@Thu?$AA@  000000018001b930     libucrt:nlsdata.obj
 0002:00001934       ??_C@_03IDIOELNC@Fri?$AA@  000000018001b934     libucrt:nlsdata.obj
 0002:00001938       ??_C@_03FEFJNEK@Sat?$AA@   000000018001b938     libucrt:nlsdata.obj
 0002:0000193c       ??_C@_06OOPIFAJ@Sunday?$AA@ 000000018001b93c     libucrt:nlsdata.obj
 0002:00001944       ??_C@_06JLEDEDGH@Monday?$AA@ 000000018001b944     libucrt:nlsdata.obj
 0002:00001950       ??_C@_07BAAGCFCM@Tuesday?$AA@ 000000018001b950     libucrt:nlsdata.obj
 0002:00001958       ??_C@_09DLIGFAKA@Wednesday?$AA@ 000000018001b958     libucrt:nlsdata.obj
 0002:00001968       ??_C@_08HACCIKIA@Thursday?$AA@ 000000018001b968     libucrt:nlsdata.obj
 0002:00001974       ??_C@_06JECMNKMI@Friday?$AA@ 000000018001b974     libucrt:nlsdata.obj
 0002:00001980       ??_C@_08INBOOONO@Saturday?$AA@ 000000018001b980     libucrt:nlsdata.obj
 0002:0000198c       ??_C@_03JIHJHPIE@Jan?$AA@  000000018001b98c     libucrt:nlsdata.obj
 0002:00001990       ??_C@_03HJBDCHOM@Feb?$AA@  000000018001b990     libucrt:nlsdata.obj
 0002:00001994       ??_C@_03ODNJBKGA@Mar?$AA@  000000018001b994     libucrt:nlsdata.obj
 0002:00001998       ??_C@_03LEOLGMJP@Apr?$AA@  000000018001b998     libucrt:nlsdata.obj
 0002:0000199c       ??_C@_03CNMDKL@May?$AA@    000000018001b99c     libucrt:nlsdata.obj
 0002:000019a0       ??_C@_03IDFGHECI@Jun?$AA@  000000018001b9a0     libucrt:nlsdata.obj
 0002:000019a4       ??_C@_03LBGABGKK@Jul?$AA@  000000018001b9a4     libucrt:nlsdata.obj
 0002:000019a8       ??_C@_03IFJFEIGA@Aug?$AA@  000000018001b9a8     libucrt:nlsdata.obj
 0002:000019ac       ??_C@_03GGCAPAJC@Sep?$AA@  000000018001b9ac     libucrt:nlsdata.obj
 0002:000019b0       ??_C@_03BMAOKBAD@Oct?$AA@  000000018001b9b0     libucrt:nlsdata.obj
 0002:000019b4       ??_C@_03JPJOFNIA@Nov?$AA@  000000018001b9b4     libucrt:nlsdata.obj
 0002:000019b8       ??_C@_03MKABNOCG@Dec?$AA@  000000018001b9b8     libucrt:nlsdata.obj
 0002:000019c0       ??_C@_07CGJPFGJA@January?$AA@ 000000018001b9c0     libucrt:nlsdata.obj
 0002:000019c8       ??_C@_08GNJGEPFN@February?$AA@ 000000018001b9c8     libucrt:nlsdata.obj
 0002:000019d4       ??_C@_05HPCKOFNC@March?$AA@ 000000018001b9d4     libucrt:nlsdata.obj
 0002:000019dc       ??_C@_05DMJDNLEJ@April?$AA@ 000000018001b9dc     libucrt:nlsdata.obj
 0002:000019e4       ??_C@_04CNLMGBGM@June?$AA@ 000000018001b9e4     libucrt:nlsdata.obj
 0002:000019ec       ??_C@_04MIEPOIFP@July?$AA@ 000000018001b9ec     libucrt:nlsdata.obj
 0002:000019f4       ??_C@_06LBBHFDDG@August?$AA@ 000000018001b9f4     libucrt:nlsdata.obj
 0002:00001a00       ??_C@_09BHHEALKD@September?$AA@ 000000018001ba00     libucrt:nlsdata.obj
 0002:00001a10       ??_C@_07JJNFCEND@October?$AA@ 000000018001ba10     libucrt:nlsdata.obj
 0002:00001a18       ??_C@_08HCHEGEOA@November?$AA@ 000000018001ba18     libucrt:nlsdata.obj
 0002:00001a28       ??_C@_08EDHMEBNP@December?$AA@ 000000018001ba28     libucrt:nlsdata.obj
 0002:00001a34       ??_C@_02DEDBPAFC@AM?$AA@   000000018001ba34     libucrt:nlsdata.obj
 0002:00001a38       ??_C@_02CJNFDJBF@PM?$AA@   000000018001ba38     libucrt:nlsdata.obj
 0002:00001a40       ??_C@_08BPBNCDIB@MM?1dd?1yy?$AA@ 000000018001ba40     libucrt:nlsdata.obj
 0002:00001a50       ??_C@_0BE@CKGJFCPC@dddd?0?5MMMM?5dd?0?5yyyy?$AA@ 000000018001ba50     libucrt:nlsdata.obj
 0002:00001a68       ??_C@_08JCCMCCIL@HH?3mm?3ss?$AA@ 000000018001ba68     libucrt:nlsdata.obj
 0002:00001a78       ??_C@_17MBGCMIPB@?$AAS?$AAu?$AAn?$AA?$AA@ 000000018001ba78     libucrt:nlsdata.obj
 0002:00001a80       ??_C@_17KBOMKBF@?$AAM?$AAo?$AAn?$AA?$AA@ 000000018001ba80     libucrt:nlsdata.obj
 0002:00001a88       ??_C@_17BMKGEGOJ@?$AAT?$AAu?$AAe?$AA?$AA@ 000000018001ba88     libucrt:nlsdata.obj
 0002:00001a90       ??_C@_17CJEDCEPE@?$AAW?$AAe?$AAd?$AA?$AA@ 000000018001ba90     libucrt:nlsdata.obj
 0002:00001a98       ??_C@_17PDPHAADD@?$AAT?$AAh?$AAu?$AA?$AA@ 000000018001ba98     libucrt:nlsdata.obj
 0002:00001aa0       ??_C@_17HFOLPPLP@?$AAF?$AAr?$AAi?$AA?$AA@ 000000018001baa0     libucrt:nlsdata.obj
 0002:00001aa8       ??_C@_17GGIBDPIH@?$AAS?$AAa?$AAt?$AA?$AA@ 000000018001baa8     libucrt:nlsdata.obj
 0002:00001ab0       ??_C@_1O@IHNHDHPB@?$AAS?$AAu?$AAn?$AAd?$AAa?$AAy?$AA?$AA@ 000000018001bab0     libucrt:nlsdata.obj
 0002:00001ac0       ??_C@_1O@MMNBFLIA@?$AAM?$AAo?$AAn?$AAd?$AAa?$AAy?$AA?$AA@ 000000018001bac0     libucrt:nlsdata.obj
 0002:00001ad0       ??_C@_1BA@ENFBFFEK@?$AAT?$AAu?$AAe?$AAs?$AAd?$AAa?$AAy?$AA?$AA@ 000000018001bad0     libucrt:nlsdata.obj
 0002:00001ae0       ??_C@_1BE@EBOGMDOH@?$AAW?$AAe?$AAd?$AAn?$AAe?$AAs?$AAd?$AAa?$AAy?$AA?$AA@ 000000018001bae0     libucrt:nlsdata.obj
 0002:00001af8       ??_C@_1BC@HHMNLIHE@?$AAT?$AAh?$AAu?$AAr?$AAs?$AAd?$AAa?$AAy?$AA?$AA@ 000000018001baf8     libucrt:nlsdata.obj
 0002:00001b10       ??_C@_1O@PDICJHAG@?$AAF?$AAr?$AAi?$AAd?$AAa?$AAy?$AA?$AA@ 000000018001bb10     libucrt:nlsdata.obj
 0002:00001b20       ??_C@_1BC@ENMNNPAJ@?$AAS?$AAa?$AAt?$AAu?$AAr?$AAd?$AAa?$AAy?$AA?$AA@ 000000018001bb20     libucrt:nlsdata.obj
 0002:00001b38       ??_C@_17DKNBKCHM@?$AAJ?$AAa?$AAn?$AA?$AA@ 000000018001bb38     libucrt:nlsdata.obj
 0002:00001b40       ??_C@_17LMDJEKJN@?$AAF?$AAe?$AAb?$AA?$AA@ 000000018001bb40     libucrt:nlsdata.obj
 0002:00001b48       ??_C@_17CKNLEDEC@?$AAM?$AAa?$AAr?$AA?$AA@ 000000018001bb48     libucrt:nlsdata.obj
 0002:00001b50       ??_C@_17LFPOIHDD@?$AAA?$AAp?$AAr?$AA?$AA@ 000000018001bb50     libucrt:nlsdata.obj
 0002:00001b58       ??_C@_17PNNKMEED@?$AAM?$AAa?$AAy?$AA?$AA@ 000000018001bb58     libucrt:nlsdata.obj
 0002:00001b60       ??_C@_17KCJGOCPB@?$AAJ?$AAu?$AAn?$AA?$AA@ 000000018001bb60     libucrt:nlsdata.obj
 0002:00001b68       ??_C@_17IJPCKHK@?$AAJ?$AAu?$AAl?$AA?$AA@ 000000018001bb68     libucrt:nlsdata.obj
 0002:00001b70       ??_C@_17ICPELBCN@?$AAA?$AAu?$AAg?$AA?$AA@ 000000018001bb70     libucrt:nlsdata.obj
 0002:00001b78       ??_C@_17HCHCOKMG@?$AAS?$AAe?$AAp?$AA?$AA@ 000000018001bb78     libucrt:nlsdata.obj
 0002:00001b80       ??_C@_17FNLKOI@?$AAO?$AAc?$AAt?$AA?$AA@ 000000018001bb80     libucrt:nlsdata.obj
 0002:00001b88       ??_C@_17BBDMLCIG@?$AAN?$AAo?$AAv?$AA?$AA@ 000000018001bb88     libucrt:nlsdata.obj
 0002:00001b90       ??_C@_17EGKACKIF@?$AAD?$AAe?$AAc?$AA?$AA@ 000000018001bb90     libucrt:nlsdata.obj
 0002:00001b98       ??_C@_1BA@EFMEIEBA@?$AAJ?$AAa?$AAn?$AAu?$AAa?$AAr?$AAy?$AA?$AA@ 000000018001bb98     libucrt:nlsdata.obj
 0002:00001ba8       ??_C@_1BC@JGDDFFAM@?$AAF?$AAe?$AAb?$AAr?$AAu?$AAa?$AAr?$AAy?$AA?$AA@ 000000018001bba8     libucrt:nlsdata.obj
 0002:00001bc0       ??_C@_1M@IKEENEDF@?$AAM?$AAa?$AAr?$AAc?$AAh?$AA?$AA@ 000000018001bbc0     libucrt:nlsdata.obj
 0002:00001bd0       ??_C@_1M@GJNLMHFD@?$AAA?$AAp?$AAr?$AAi?$AAl?$AA?$AA@ 000000018001bbd0     libucrt:nlsdata.obj
 0002:00001be0       ??_C@_19EPFLPGAP@?$AAJ?$AAu?$AAn?$AAe?$AA?$AA@ 000000018001bbe0     libucrt:nlsdata.obj
 0002:00001bf0       ??_C@_19BIFMLPCD@?$AAJ?$AAu?$AAl?$AAy?$AA?$AA@ 000000018001bbf0     libucrt:nlsdata.obj
 0002:00001c00       ??_C@_1O@PAHLKOAC@?$AAA?$AAu?$AAg?$AAu?$AAs?$AAt?$AA?$AA@ 000000018001bc00     libucrt:nlsdata.obj
 0002:00001c10       ??_C@_1BE@DKAAMBJL@?$AAS?$AAe?$AAp?$AAt?$AAe?$AAm?$AAb?$AAe?$AAr?$AA?$AA@ 000000018001bc10     libucrt:nlsdata.obj
 0002:00001c28       ??_C@_1BA@EPANDLNG@?$AAO?$AAc?$AAt?$AAo?$AAb?$AAe?$AAr?$AA?$AA@ 000000018001bc28     libucrt:nlsdata.obj
 0002:00001c38       ??_C@_1BC@BGLIFPF@?$AAN?$AAo?$AAv?$AAe?$AAm?$AAb?$AAe?$AAr?$AA?$AA@ 000000018001bc38     libucrt:nlsdata.obj
 0002:00001c50       ??_C@_1BC@FEMKIFH@?$AAD?$AAe?$AAc?$AAe?$AAm?$AAb?$AAe?$AAr?$AA?$AA@ 000000018001bc50     libucrt:nlsdata.obj
 0002:00001c64       ??_C@_15ODEHAHHF@?$AAA?$AAM?$AA?$AA@ 000000018001bc64     libucrt:nlsdata.obj
 0002:00001c6c       ??_C@_15CLMNNGEL@?$AAP?$AAM?$AA?$AA@ 000000018001bc6c     libucrt:nlsdata.obj
 0002:00001c78       ??_C@_1BC@IEBCMHCM@?$AAM?$AAM?$AA?1?$AAd?$AAd?$AA?1?$AAy?$AAy?$AA?$AA@ 000000018001bc78     libucrt:nlsdata.obj
 0002:00001c90       ??_C@_1CI@KNAKOEBC@?$AAd?$AAd?$AAd?$AAd?$AA?0?$AA?5?$AAM?$AAM?$AAM?$AAM?$AA?5?$AAd?$AAd?$AA?0?$AA?5?$AAy?$AAy?$AAy?$AAy?$AA?$AA@ 000000018001bc90     libucrt:nlsdata.obj
 0002:00001cb8       ??_C@_1BC@GDGBMEMK@?$AAH?$AAH?$AA?3?$AAm?$AAm?$AA?3?$AAs?$AAs?$AA?$AA@ 000000018001bcb8     libucrt:nlsdata.obj
 0002:00001cd0       ??_C@_1M@BMHNFIME@?$AAe?$AAn?$AA?9?$AAU?$AAS?$AA?$AA@ 000000018001bcd0     libucrt:nlsdata.obj
 0002:00001ce0       __newctype                 000000018001bce0     libucrt:ctype.obj
 0002:00001fe0       __newclmap                 000000018001bfe0     libucrt:ctype.obj
 0002:00002160       __newcumap                 000000018001c160     libucrt:ctype.obj
 0002:000022e0       _wctype                    000000018001c2e0     libucrt:ctype.obj
 0002:00002508       ??_C@_1M@HPNHIDJI@?$AAj?$AAa?$AA?9?$AAJ?$AAP?$AA?$AA@ 000000018001c508     libucrt:mbctype.obj
 0002:00002518       ??_C@_1M@BIBDDEMK@?$AAz?$AAh?$AA?9?$AAC?$AAN?$AA?$AA@ 000000018001c518     libucrt:mbctype.obj
 0002:00002528       ??_C@_1M@JLOOOEGK@?$AAk?$AAo?$AA?9?$AAK?$AAR?$AA?$AA@ 000000018001c528     libucrt:mbctype.obj
 0002:00002538       ??_C@_1M@CLNBBOPM@?$AAz?$AAh?$AA?9?$AAT?$AAW?$AA?$AA@ 000000018001c538     libucrt:mbctype.obj
 0002:000025f0       ??_C@_1EA@JGEFHKEI@?$AAa?$AAp?$AAi?$AA?9?$AAm?$AAs?$AA?9?$AAw?$AAi?$AAn?$AA?9?$AAc?$AAo?$AAr?$AAe?$AA?9?$AAd?$AAa?$AAt?$AAe?$AAt?$AAi?$AAm?$AAe?$AA?9?$AAl?$AA1?$AA?9?$AA1?$AA?9?$AA1?$AA?$AA@ 000000018001c5f0     libucrt:winapi_thunks.obj
 0002:00002630       ??_C@_1DM@KHCHBNEB@?$AAa?$AAp?$AAi?$AA?9?$AAm?$AAs?$AA?9?$AAw?$AAi?$AAn?$AA?9?$AAc?$AAo?$AAr?$AAe?$AA?9?$AAf?$AAi?$AAb?$AAe?$AAr?$AAs?$AA?9?$AAl?$AA1?$AA?9?$AA1?$AA?9?$AA1?$AA?$AA@ 000000018001c630     libucrt:winapi_thunks.obj
 0002:00002670       ??_C@_1DI@IJCEHOCB@?$AAa?$AAp?$AAi?$AA?9?$AAm?$AAs?$AA?9?$AAw?$AAi?$AAn?$AA?9?$AAc?$AAo?$AAr?$AAe?$AA?9?$AAf?$AAi?$AAl?$AAe?$AA?9?$AAl?$AA1?$AA?9?$AA2?$AA?9?$AA2?$AA?$AA@ 000000018001c670     libucrt:winapi_thunks.obj
 0002:000026b0       ??_C@_1EI@MPIAOHOC@?$AAa?$AAp?$AAi?$AA?9?$AAm?$AAs?$AA?9?$AAw?$AAi?$AAn?$AA?9?$AAc?$AAo?$AAr?$AAe?$AA?9?$AAl?$AAo?$AAc?$AAa?$AAl?$AAi?$AAz?$AAa?$AAt?$AAi?$AAo?$AAn?$AA?9?$AAl?$AA1?$AA?9@ 000000018001c6b0     libucrt:winapi_thunks.obj
 0002:00002700       ??_C@_1FK@FPHCKFIE@?$AAa?$AAp?$AAi?$AA?9?$AAm?$AAs?$AA?9?$AAw?$AAi?$AAn?$AA?9?$AAc?$AAo?$AAr?$AAe?$AA?9?$AAl?$AAo?$AAc?$AAa?$AAl?$AAi?$AAz?$AAa?$AAt?$AAi?$AAo?$AAn?$AA?9?$AAo?$AAb?$AAs@ 000000018001c700     libucrt:winapi_thunks.obj
 0002:00002760       ??_C@_1EM@DILCGIIO@?$AAa?$AAp?$AAi?$AA?9?$AAm?$AAs?$AA?9?$AAw?$AAi?$AAn?$AA?9?$AAc?$AAo?$AAr?$AAe?$AA?9?$AAp?$AAr?$AAo?$AAc?$AAe?$AAs?$AAs?$AAt?$AAh?$AAr?$AAe?$AAa?$AAd?$AAs?$AA?9?$AAl@ 000000018001c760     libucrt:winapi_thunks.obj
 0002:000027b0       ??_C@_1DM@LNCGDDPN@?$AAa?$AAp?$AAi?$AA?9?$AAm?$AAs?$AA?9?$AAw?$AAi?$AAn?$AA?9?$AAc?$AAo?$AAr?$AAe?$AA?9?$AAs?$AAt?$AAr?$AAi?$AAn?$AAg?$AA?9?$AAl?$AA1?$AA?9?$AA1?$AA?9?$AA0?$AA?$AA@ 000000018001c7b0     libucrt:winapi_thunks.obj
 0002:000027f0       ??_C@_1DK@LPPGFMPP@?$AAa?$AAp?$AAi?$AA?9?$AAm?$AAs?$AA?9?$AAw?$AAi?$AAn?$AA?9?$AAc?$AAo?$AAr?$AAe?$AA?9?$AAs?$AAy?$AAn?$AAc?$AAh?$AA?9?$AAl?$AA1?$AA?9?$AA2?$AA?9?$AA0?$AA?$AA@ 000000018001c7f0     libucrt:winapi_thunks.obj
 0002:00002830       ??_C@_1DO@FPAPJEMD@?$AAa?$AAp?$AAi?$AA?9?$AAm?$AAs?$AA?9?$AAw?$AAi?$AAn?$AA?9?$AAc?$AAo?$AAr?$AAe?$AA?9?$AAs?$AAy?$AAs?$AAi?$AAn?$AAf?$AAo?$AA?9?$AAl?$AA1?$AA?9?$AA2?$AA?9?$AA1?$AA?$AA@ 000000018001c830     libucrt:winapi_thunks.obj
 0002:00002870       ??_C@_1DK@NDHNAHIO@?$AAa?$AAp?$AAi?$AA?9?$AAm?$AAs?$AA?9?$AAw?$AAi?$AAn?$AA?9?$AAc?$AAo?$AAr?$AAe?$AA?9?$AAw?$AAi?$AAn?$AAr?$AAt?$AA?9?$AAl?$AA1?$AA?9?$AA1?$AA?9?$AA0?$AA?$AA@ 000000018001c870     libucrt:winapi_thunks.obj
 0002:000028b0       ??_C@_1DM@KGHDGBCM@?$AAa?$AAp?$AAi?$AA?9?$AAm?$AAs?$AA?9?$AAw?$AAi?$AAn?$AA?9?$AAc?$AAo?$AAr?$AAe?$AA?9?$AAx?$AAs?$AAt?$AAa?$AAt?$AAe?$AA?9?$AAl?$AA2?$AA?9?$AA1?$AA?9?$AA0?$AA?$AA@ 000000018001c8b0     libucrt:winapi_thunks.obj
 0002:000028f0       ??_C@_1EO@IJIOEFOH@?$AAa?$AAp?$AAi?$AA?9?$AAm?$AAs?$AA?9?$AAw?$AAi?$AAn?$AA?9?$AAr?$AAt?$AAc?$AAo?$AAr?$AAe?$AA?9?$AAn?$AAt?$AAu?$AAs?$AAe?$AAr?$AA?9?$AAw?$AAi?$AAn?$AAd?$AAo?$AAw?$AA?9@ 000000018001c8f0     libucrt:winapi_thunks.obj
 0002:00002940       ??_C@_1FG@HHGEKANL@?$AAa?$AAp?$AAi?$AA?9?$AAm?$AAs?$AA?9?$AAw?$AAi?$AAn?$AA?9?$AAs?$AAe?$AAc?$AAu?$AAr?$AAi?$AAt?$AAy?$AA?9?$AAs?$AAy?$AAs?$AAt?$AAe?$AAm?$AAf?$AAu?$AAn?$AAc?$AAt?$AAi@ 000000018001c940     libucrt:winapi_thunks.obj
 0002:000029a0       ??_C@_1EG@DBIOJECG@?$AAe?$AAx?$AAt?$AA?9?$AAm?$AAs?$AA?9?$AAw?$AAi?$AAn?$AA?9?$AAn?$AAt?$AAu?$AAs?$AAe?$AAr?$AA?9?$AAd?$AAi?$AAa?$AAl?$AAo?$AAg?$AAb?$AAo?$AAx?$AA?9?$AAl?$AA1?$AA?9?$AA1@ 000000018001c9a0     libucrt:winapi_thunks.obj
 0002:000029f0       ??_C@_1EO@FIHMJCLF@?$AAe?$AAx?$AAt?$AA?9?$AAm?$AAs?$AA?9?$AAw?$AAi?$AAn?$AA?9?$AAn?$AAt?$AAu?$AAs?$AAe?$AAr?$AA?9?$AAw?$AAi?$AAn?$AAd?$AAo?$AAw?$AAs?$AAt?$AAa?$AAt?$AAi?$AAo?$AAn?$AA?9@ 000000018001c9f0     libucrt:winapi_thunks.obj
 0002:00002a40       ??_C@_1BC@DNHGCMLG@?$AAa?$AAd?$AAv?$AAa?$AAp?$AAi?$AA3?$AA2?$AA?$AA@ 000000018001ca40     libucrt:winapi_thunks.obj
 0002:00002a58       ??_C@_1BC@GDMECMAK@?$AAk?$AAe?$AAr?$AAn?$AAe?$AAl?$AA3?$AA2?$AA?$AA@ 000000018001ca58     libucrt:winapi_thunks.obj
 0002:00002a70       ??_C@_1M@OAIMIKLP@?$AAn?$AAt?$AAd?$AAl?$AAl?$AA?$AA@ 000000018001ca70     libucrt:winapi_thunks.obj
 0002:00002a80       ??_C@_1EG@DPGNFKGC@?$AAa?$AAp?$AAi?$AA?9?$AAm?$AAs?$AA?9?$AAw?$AAi?$AAn?$AA?9?$AAa?$AAp?$AAp?$AAm?$AAo?$AAd?$AAe?$AAl?$AA?9?$AAr?$AAu?$AAn?$AAt?$AAi?$AAm?$AAe?$AA?9?$AAl?$AA1?$AA?9?$AA1@ 000000018001ca80     libucrt:winapi_thunks.obj
 0002:00002ac8       ??_C@_1O@BCCLBEOE@?$AAu?$AAs?$AAe?$AAr?$AA3?$AA2?$AA?$AA@ 000000018001cac8     libucrt:winapi_thunks.obj
 0002:00002ad8       ??_C@_1BA@PFFKHIOG@?$AAa?$AAp?$AAi?$AA?9?$AAm?$AAs?$AA?9?$AA?$AA@ 000000018001cad8     libucrt:winapi_thunks.obj
 0002:00002ae8       ??_C@_1BA@IAIFMGEF@?$AAe?$AAx?$AAt?$AA?9?$AAm?$AAs?$AA?9?$AA?$AA@ 000000018001cae8     libucrt:winapi_thunks.obj
 0002:00002b00       ??_C@_08KNHFBNJ@FlsAlloc?$AA@ 000000018001cb00     libucrt:winapi_thunks.obj
 0002:00002b18       ??_C@_07PEJMOBNF@FlsFree?$AA@ 000000018001cb18     libucrt:winapi_thunks.obj
 0002:00002b28       ??_C@_0M@GDNOONDI@FlsGetValue?$AA@ 000000018001cb28     libucrt:winapi_thunks.obj
 0002:00002b40       ??_C@_0M@JCPCPOEF@FlsSetValue?$AA@ 000000018001cb40     libucrt:winapi_thunks.obj
 0002:00002b58       ??_C@_0BA@HNOPNCHB@GetActiveWindow?$AA@ 000000018001cb58     libucrt:winapi_thunks.obj
 0002:00002b70       ??_C@_0BD@HHGDFDBJ@GetLastActivePopup?$AA@ 000000018001cb70     libucrt:winapi_thunks.obj
 0002:00002b90       ??_C@_0BI@DFKBFLJE@GetProcessWindowStation?$AA@ 000000018001cb90     libucrt:winapi_thunks.obj
 0002:00002bb0       ??_C@_0BK@DEKFELLI@GetUserObjectInformationW?$AA@ 000000018001cbb0     libucrt:winapi_thunks.obj
 0002:00002bd8       ??_C@_0BM@HCFOFFN@InitializeCriticalSectionEx?$AA@ 000000018001cbd8     libucrt:winapi_thunks.obj
 0002:00002c00       ??_C@_0O@KKBNKAPF@LCMapStringEx?$AA@ 000000018001cc00     libucrt:winapi_thunks.obj
 0002:00002c18       ??_C@_0BB@HBDEELFH@LocaleNameToLCID?$AA@ 000000018001cc18     libucrt:winapi_thunks.obj
 0002:00002c38       ??_C@_0M@CHKKJDAI@MessageBoxA?$AA@ 000000018001cc38     libucrt:winapi_thunks.obj
 0002:00002c50       ??_C@_0M@DLDCCGNP@MessageBoxW?$AA@ 000000018001cc50     libucrt:winapi_thunks.obj
 0002:00002c60       ??_C@_0CF@OJOFEIGO@AppPolicyGetProcessTerminationMe@ 000000018001cc60     libucrt:winapi_thunks.obj
 0002:00002c90       ??_C@_0CE@OICFMIKE@AppPolicyGetShowDeveloperDiagnos@ 000000018001cc90     libucrt:winapi_thunks.obj
 0002:00002cb8       ??_C@_0BL@ODDJNEDA@AppPolicyGetWindowingModel?$AA@ 000000018001ccb8     libucrt:winapi_thunks.obj
 0002:00002ce0       ?large_power_data@?1??multiply_by_power_of_ten@__crt_strtox@@YA_NAEAUbig_integer@2@I@Z@4QBIB 000000018001cce0     libucrt:cfout.obj
 0002:000035f0       ?large_power_indices@?1??multiply_by_power_of_ten@__crt_strtox@@YA_NAEAUbig_integer@2@I@Z@4QBUunpack_index@?1??12@YA_N0I@Z@B 000000018001d5f0     libucrt:cfout.obj
 0002:00003688       ?small_powers_of_ten@?1??multiply_by_power_of_ten@__crt_strtox@@YA_NAEAUbig_integer@2@I@Z@4QBIB 000000018001d688     libucrt:cfout.obj
 0002:000036ac       ??_C@_01GBGANLPD@0?$AA@    000000018001d6ac     libucrt:cfout.obj
 0002:000036b0       ??_C@_05DNEBIAHO@1?$CDINF?$AA@ 000000018001d6b0     libucrt:cfout.obj
 0002:000036b8       ??_C@_06IMKFLFPG@1?$CDQNAN?$AA@ 000000018001d6b8     libucrt:cfout.obj
 0002:000036c0       ??_C@_06PGGFOGJG@1?$CDSNAN?$AA@ 000000018001d6c0     libucrt:cfout.obj
 0002:000036c8       ??_C@_05PHHOCPM@1?$CDIND?$AA@ 000000018001d6c8     libucrt:cfout.obj
 0002:000036d0       ??_C@_15PJPFLCCM@?$AAu?$AAk?$AA?$AA@ 000000018001d6d0     libucrt:get_qualified_locale.obj
 0002:000036d8       ??_C@_1M@BJNKEDC@?$AAc?$AAa?$AA?9?$AAE?$AAS?$AA?$AA@ 000000018001d6d8     libucrt:lcidtoname_downlevel.obj
 0002:000036e8       ??_C@_1M@IJJHFJHA@?$AAc?$AAs?$AA?9?$AAC?$AAZ?$AA?$AA@ 000000018001d6e8     libucrt:lcidtoname_downlevel.obj
 0002:000036f8       ??_C@_1M@CLPEOBGI@?$AAd?$AAa?$AA?9?$AAD?$AAK?$AA?$AA@ 000000018001d6f8     libucrt:lcidtoname_downlevel.obj
 0002:00003708       ??_C@_1M@MCMADGCB@?$AAd?$AAe?$AA?9?$AAD?$AAE?$AA?$AA@ 000000018001d708     libucrt:lcidtoname_downlevel.obj
 0002:00003718       ??_C@_1M@OOCKEMAM@?$AAe?$AAl?$AA?9?$AAG?$AAR?$AA?$AA@ 000000018001d718     libucrt:lcidtoname_downlevel.obj
 0002:00003728       ??_C@_1M@DDNJFGID@?$AAf?$AAi?$AA?9?$AAF?$AAI?$AA?$AA@ 000000018001d728     libucrt:lcidtoname_downlevel.obj
 0002:00003738       ??_C@_1M@GLIPPMAC@?$AAf?$AAr?$AA?9?$AAF?$AAR?$AA?$AA@ 000000018001d738     libucrt:lcidtoname_downlevel.obj
 0002:00003748       ??_C@_1M@GFMCHPE@?$AAh?$AAe?$AA?9?$AAI?$AAL?$AA?$AA@ 000000018001d748     libucrt:lcidtoname_downlevel.obj
 0002:00003758       ??_C@_1M@MHLPGNKM@?$AAh?$AAu?$AA?9?$AAH?$AAU?$AA?$AA@ 000000018001d758     libucrt:lcidtoname_downlevel.obj
 0002:00003768       ??_C@_1M@LPDDNNPN@?$AAi?$AAs?$AA?9?$AAI?$AAS?$AA?$AA@ 000000018001d768     libucrt:lcidtoname_downlevel.obj
 0002:00003778       ??_C@_1M@MADIPODN@?$AAi?$AAt?$AA?9?$AAI?$AAT?$AA?$AA@ 000000018001d778     libucrt:lcidtoname_downlevel.obj
 0002:00003788       ??_C@_1M@IHBJJGG@?$AAn?$AAl?$AA?9?$AAN?$AAL?$AA?$AA@ 000000018001d788     libucrt:lcidtoname_downlevel.obj
 0002:00003798       ??_C@_1M@EANAGDL@?$AAn?$AAb?$AA?9?$AAN?$AAO?$AA?$AA@ 000000018001d798     libucrt:lcidtoname_downlevel.obj
 0002:000037a8       ??_C@_1M@NEIEMEGP@?$AAp?$AAl?$AA?9?$AAP?$AAL?$AA?$AA@ 000000018001d7a8     libucrt:lcidtoname_downlevel.obj
 0002:000037b8       ??_C@_1M@BOCFIGEP@?$AAp?$AAt?$AA?9?$AAB?$AAR?$AA?$AA@ 000000018001d7b8     libucrt:lcidtoname_downlevel.obj
 0002:000037c8       ??_C@_1M@IMPFOPBG@?$AAr?$AAo?$AA?9?$AAR?$AAO?$AA?$AA@ 000000018001d7c8     libucrt:lcidtoname_downlevel.obj
 0002:000037d8       ??_C@_1M@IDNNEJMM@?$AAr?$AAu?$AA?9?$AAR?$AAU?$AA?$AA@ 000000018001d7d8     libucrt:lcidtoname_downlevel.obj
 0002:000037e8       ??_C@_1M@LILEEOGM@?$AAh?$AAr?$AA?9?$AAH?$AAR?$AA?$AA@ 000000018001d7e8     libucrt:lcidtoname_downlevel.obj
 0002:000037f8       ??_C@_1M@FKIFEHPB@?$AAs?$AAk?$AA?9?$AAS?$AAK?$AA?$AA@ 000000018001d7f8     libucrt:lcidtoname_downlevel.obj
 0002:00003808       ??_C@_1M@LJMAMNPJ@?$AAs?$AAq?$AA?9?$AAA?$AAL?$AA?$AA@ 000000018001d808     libucrt:lcidtoname_downlevel.obj
 0002:00003818       ??_C@_1M@GIAKDKJK@?$AAs?$AAv?$AA?9?$AAS?$AAE?$AA?$AA@ 000000018001d818     libucrt:lcidtoname_downlevel.obj
 0002:00003828       ??_C@_1M@MKJKIKCL@?$AAt?$AAh?$AA?9?$AAT?$AAH?$AA?$AA@ 000000018001d828     libucrt:lcidtoname_downlevel.obj
 0002:00003838       ??_C@_1M@MFLCCMPB@?$AAt?$AAr?$AA?9?$AAT?$AAR?$AA?$AA@ 000000018001d838     libucrt:lcidtoname_downlevel.obj
 0002:00003848       ??_C@_1M@OIJHDKJN@?$AAu?$AAr?$AA?9?$AAP?$AAK?$AA?$AA@ 000000018001d848     libucrt:lcidtoname_downlevel.obj
 0002:00003858       ??_C@_1M@LHIPCIEK@?$AAi?$AAd?$AA?9?$AAI?$AAD?$AA?$AA@ 000000018001d858     libucrt:lcidtoname_downlevel.obj
 0002:00003868       ??_C@_1M@MFMOBGI@?$AAu?$AAk?$AA?9?$AAU?$AAA?$AA?$AA@ 000000018001d868     libucrt:lcidtoname_downlevel.obj
 0002:00003878       ??_C@_1M@OBGLJIPL@?$AAb?$AAe?$AA?9?$AAB?$AAY?$AA?$AA@ 000000018001d878     libucrt:lcidtoname_downlevel.obj
 0002:00003888       ??_C@_1M@BCFAJEAD@?$AAs?$AAl?$AA?9?$AAS?$AAI?$AA?$AA@ 000000018001d888     libucrt:lcidtoname_downlevel.obj
 0002:00003898       ??_C@_1M@FKFFEDDN@?$AAe?$AAt?$AA?9?$AAE?$AAE?$AA?$AA@ 000000018001d898     libucrt:lcidtoname_downlevel.obj
 0002:000038a8       ??_C@_1M@KGKKAACI@?$AAl?$AAv?$AA?9?$AAL?$AAV?$AA?$AA@ 000000018001d8a8     libucrt:lcidtoname_downlevel.obj
 0002:000038b8       ??_C@_1M@IFGBIJO@?$AAl?$AAt?$AA?9?$AAL?$AAT?$AA?$AA@ 000000018001d8b8     libucrt:lcidtoname_downlevel.obj
 0002:000038c8       ??_C@_1M@FGEAHEDM@?$AAf?$AAa?$AA?9?$AAI?$AAR?$AA?$AA@ 000000018001d8c8     libucrt:lcidtoname_downlevel.obj
 0002:000038d8       ??_C@_1M@KBMAIBFN@?$AAv?$AAi?$AA?9?$AAV?$AAN?$AA?$AA@ 000000018001d8d8     libucrt:lcidtoname_downlevel.obj
 0002:000038e8       ??_C@_1M@GPCBKDJK@?$AAh?$AAy?$AA?9?$AAA?$AAM?$AA?$AA@ 000000018001d8e8     libucrt:lcidtoname_downlevel.obj
 0002:000038f8       ??_C@_1BG@BECMDDJB@?$AAa?$AAz?$AA?9?$AAA?$AAZ?$AA?9?$AAL?$AAa?$AAt?$AAn?$AA?$AA@ 000000018001d8f8     libucrt:lcidtoname_downlevel.obj
 0002:00003910       ??_C@_1M@MAOFCAEA@?$AAe?$AAu?$AA?9?$AAE?$AAS?$AA?$AA@ 000000018001d910     libucrt:lcidtoname_downlevel.obj
 0002:00003920       ??_C@_1M@IGHABKPI@?$AAm?$AAk?$AA?9?$AAM?$AAK?$AA?$AA@ 000000018001d920     libucrt:lcidtoname_downlevel.obj
 0002:00003930       ??_C@_1M@IAIGNEJG@?$AAt?$AAn?$AA?9?$AAZ?$AAA?$AA?$AA@ 000000018001d930     libucrt:lcidtoname_downlevel.obj
 0002:00003940       ??_C@_1M@IIJCOJFA@?$AAx?$AAh?$AA?9?$AAZ?$AAA?$AA?$AA@ 000000018001d940     libucrt:lcidtoname_downlevel.obj
 0002:00003950       ??_C@_1M@LGPJHNJH@?$AAz?$AAu?$AA?9?$AAZ?$AAA?$AA?$AA@ 000000018001d950     libucrt:lcidtoname_downlevel.obj
 0002:00003960       ??_C@_1M@HOKAOIO@?$AAa?$AAf?$AA?9?$AAZ?$AAA?$AA?$AA@ 000000018001d960     libucrt:lcidtoname_downlevel.obj
 0002:00003970       ??_C@_1M@DPCLHLIE@?$AAk?$AAa?$AA?9?$AAG?$AAE?$AA?$AA@ 000000018001d970     libucrt:lcidtoname_downlevel.obj
 0002:00003980       ??_C@_1M@BLKMHJBI@?$AAf?$AAo?$AA?9?$AAF?$AAO?$AA?$AA@ 000000018001d980     libucrt:lcidtoname_downlevel.obj
 0002:00003990       ??_C@_1M@LGGJAPPB@?$AAh?$AAi?$AA?9?$AAI?$AAN?$AA?$AA@ 000000018001d990     libucrt:lcidtoname_downlevel.obj
 0002:000039a0       ??_C@_1M@FIKPIHFE@?$AAm?$AAt?$AA?9?$AAM?$AAT?$AA?$AA@ 000000018001d9a0     libucrt:lcidtoname_downlevel.obj
 0002:000039b0       ??_C@_1M@HEGGPBFA@?$AAs?$AAe?$AA?9?$AAN?$AAO?$AA?$AA@ 000000018001d9b0     libucrt:lcidtoname_downlevel.obj
 0002:000039c0       ??_C@_1M@EIBJEEPA@?$AAm?$AAs?$AA?9?$AAM?$AAY?$AA?$AA@ 000000018001d9c0     libucrt:lcidtoname_downlevel.obj
 0002:000039d0       ??_C@_1M@FHLBGMPP@?$AAk?$AAk?$AA?9?$AAK?$AAZ?$AA?$AA@ 000000018001d9d0     libucrt:lcidtoname_downlevel.obj
 0002:000039e0       ??_C@_1M@NGJJLCGI@?$AAk?$AAy?$AA?9?$AAK?$AAG?$AA?$AA@ 000000018001d9e0     libucrt:lcidtoname_downlevel.obj
 0002:000039f0       ??_C@_1M@GIENNBFC@?$AAs?$AAw?$AA?9?$AAK?$AAE?$AA?$AA@ 000000018001d9f0     libucrt:lcidtoname_downlevel.obj
 0002:00003a00       ??_C@_1BG@NDGMJIMJ@?$AAu?$AAz?$AA?9?$AAU?$AAZ?$AA?9?$AAL?$AAa?$AAt?$AAn?$AA?$AA@ 000000018001da00     libucrt:lcidtoname_downlevel.obj
 0002:00003a18       ??_C@_1M@IDCCIHBC@?$AAt?$AAt?$AA?9?$AAR?$AAU?$AA?$AA@ 000000018001da18     libucrt:lcidtoname_downlevel.obj
 0002:00003a28       ??_C@_1M@LOICPMOJ@?$AAb?$AAn?$AA?9?$AAI?$AAN?$AA?$AA@ 000000018001da28     libucrt:lcidtoname_downlevel.obj
 0002:00003a38       ??_C@_1M@KPKKNEAH@?$AAp?$AAa?$AA?9?$AAI?$AAN?$AA?$AA@ 000000018001da38     libucrt:lcidtoname_downlevel.obj
 0002:00003a48       ??_C@_1M@PJGPPBOG@?$AAg?$AAu?$AA?9?$AAI?$AAN?$AA?$AA@ 000000018001da48     libucrt:lcidtoname_downlevel.obj
 0002:00003a58       ??_C@_1M@KMKMOPHI@?$AAt?$AAa?$AA?9?$AAI?$AAN?$AA?$AA@ 000000018001da58     libucrt:lcidtoname_downlevel.obj
 0002:00003a68       ??_C@_1M@KFEHEPAC@?$AAt?$AAe?$AA?9?$AAI?$AAN?$AA?$AA@ 000000018001da68     libucrt:lcidtoname_downlevel.obj
 0002:00003a78       ??_C@_1M@CDCLMGHI@?$AAk?$AAn?$AA?9?$AAI?$AAN?$AA?$AA@ 000000018001da78     libucrt:lcidtoname_downlevel.obj
 0002:00003a88       ??_C@_1M@MIODLDKF@?$AAm?$AAl?$AA?9?$AAI?$AAN?$AA?$AA@ 000000018001da88     libucrt:lcidtoname_downlevel.obj
 0002:00003a98       ??_C@_1M@PBIEACPO@?$AAm?$AAr?$AA?9?$AAI?$AAN?$AA?$AA@ 000000018001da98     libucrt:lcidtoname_downlevel.obj
 0002:00003aa8       ??_C@_1M@NIDEAGPH@?$AAs?$AAa?$AA?9?$AAI?$AAN?$AA?$AA@ 000000018001daa8     libucrt:lcidtoname_downlevel.obj
 0002:00003ab8       ??_C@_1M@FHIHCBIO@?$AAm?$AAn?$AA?9?$AAM?$AAN?$AA?$AA@ 000000018001dab8     libucrt:lcidtoname_downlevel.obj
 0002:00003ac8       ??_C@_1M@JAIJPENP@?$AAc?$AAy?$AA?9?$AAG?$AAB?$AA?$AA@ 000000018001dac8     libucrt:lcidtoname_downlevel.obj
 0002:00003ad8       ??_C@_1M@PHGFBEPN@?$AAg?$AAl?$AA?9?$AAE?$AAS?$AA?$AA@ 000000018001dad8     libucrt:lcidtoname_downlevel.obj
 0002:00003ae8       ??_C@_1O@KPIPDNCP@?$AAk?$AAo?$AAk?$AA?9?$AAI?$AAN?$AA?$AA@ 000000018001dae8     libucrt:lcidtoname_downlevel.obj
 0002:00003af8       ??_C@_1O@KNHJLDJA@?$AAs?$AAy?$AAr?$AA?9?$AAS?$AAY?$AA?$AA@ 000000018001daf8     libucrt:lcidtoname_downlevel.obj
 0002:00003b08       ??_C@_1O@MKEKBLAH@?$AAd?$AAi?$AAv?$AA?9?$AAM?$AAV?$AA?$AA@ 000000018001db08     libucrt:lcidtoname_downlevel.obj
 0002:00003b18       ??_C@_1O@OHDCKDDF@?$AAq?$AAu?$AAz?$AA?9?$AAB?$AAO?$AA?$AA@ 000000018001db18     libucrt:lcidtoname_downlevel.obj
 0002:00003b28       ??_C@_1M@LEPJNLFD@?$AAn?$AAs?$AA?9?$AAZ?$AAA?$AA?$AA@ 000000018001db28     libucrt:lcidtoname_downlevel.obj
 0002:00003b38       ??_C@_1M@OMLEIIJB@?$AAm?$AAi?$AA?9?$AAN?$AAZ?$AA?$AA@ 000000018001db38     libucrt:lcidtoname_downlevel.obj
 0002:00003b48       ??_C@_1M@PMPEAILG@?$AAa?$AAr?$AA?9?$AAI?$AAQ?$AA?$AA@ 000000018001db48     libucrt:lcidtoname_downlevel.obj
 0002:00003b58       ??_C@_1M@CNKPNOEE@?$AAd?$AAe?$AA?9?$AAC?$AAH?$AA?$AA@ 000000018001db58     libucrt:lcidtoname_downlevel.obj
 0002:00003b68       ??_C@_1M@LKMGMLKO@?$AAe?$AAn?$AA?9?$AAG?$AAB?$AA?$AA@ 000000018001db68     libucrt:lcidtoname_downlevel.obj
 0002:00003b78       ??_C@_1M@PGKJFFGL@?$AAe?$AAs?$AA?9?$AAM?$AAX?$AA?$AA@ 000000018001db78     libucrt:lcidtoname_downlevel.obj
 0002:00003b88       ??_C@_1M@DNNANBDC@?$AAf?$AAr?$AA?9?$AAB?$AAE?$AA?$AA@ 000000018001db88     libucrt:lcidtoname_downlevel.obj
 0002:00003b98       ??_C@_1M@HLGMDFHM@?$AAi?$AAt?$AA?9?$AAC?$AAH?$AA?$AA@ 000000018001db98     libucrt:lcidtoname_downlevel.obj
 0002:00003ba8       ??_C@_1M@CLLBGJH@?$AAn?$AAl?$AA?9?$AAB?$AAE?$AA?$AA@ 000000018001dba8     libucrt:lcidtoname_downlevel.obj
 0002:00003bb8       ??_C@_1M@BODBOGLF@?$AAn?$AAn?$AA?9?$AAN?$AAO?$AA?$AA@ 000000018001dbb8     libucrt:lcidtoname_downlevel.obj
 0002:00003bc8       ??_C@_1M@HFFAHKAD@?$AAp?$AAt?$AA?9?$AAP?$AAT?$AA?$AA@ 000000018001dbc8     libucrt:lcidtoname_downlevel.obj
 0002:00003bd8       ??_C@_1BG@LNOAKHIE@?$AAs?$AAr?$AA?9?$AAS?$AAP?$AA?9?$AAL?$AAa?$AAt?$AAn?$AA?$AA@ 000000018001dbd8     libucrt:lcidtoname_downlevel.obj
 0002:00003bf0       ??_C@_1M@HBMHBGAK@?$AAs?$AAv?$AA?9?$AAF?$AAI?$AA?$AA@ 000000018001dbf0     libucrt:lcidtoname_downlevel.obj
 0002:00003c00       ??_C@_1BG@DGCJGJBE@?$AAa?$AAz?$AA?9?$AAA?$AAZ?$AA?9?$AAC?$AAy?$AAr?$AAl?$AA?$AA@ 000000018001dc00     libucrt:lcidtoname_downlevel.obj
 0002:00003c18       ??_C@_1M@KEJDAAHB@?$AAs?$AAe?$AA?9?$AAS?$AAE?$AA?$AA@ 000000018001dc18     libucrt:lcidtoname_downlevel.obj
 0002:00003c28       ??_C@_1M@HEIBJJAD@?$AAm?$AAs?$AA?9?$AAB?$AAN?$AA?$AA@ 000000018001dc28     libucrt:lcidtoname_downlevel.obj
 0002:00003c38       ??_C@_1BG@PBGJMCEM@?$AAu?$AAz?$AA?9?$AAU?$AAZ?$AA?9?$AAC?$AAy?$AAr?$AAl?$AA?$AA@ 000000018001dc38     libucrt:lcidtoname_downlevel.obj
 0002:00003c50       ??_C@_1O@LAOBCMDF@?$AAq?$AAu?$AAz?$AA?9?$AAE?$AAC?$AA?$AA@ 000000018001dc50     libucrt:lcidtoname_downlevel.obj
 0002:00003c60       ??_C@_1M@POEEMAIO@?$AAa?$AAr?$AA?9?$AAE?$AAG?$AA?$AA@ 000000018001dc60     libucrt:lcidtoname_downlevel.obj
 0002:00003c70       ??_C@_1M@EFAKDEDL@?$AAz?$AAh?$AA?9?$AAH?$AAK?$AA?$AA@ 000000018001dc70     libucrt:lcidtoname_downlevel.obj
 0002:00003c80       ??_C@_1M@HKKIJHGI@?$AAd?$AAe?$AA?9?$AAA?$AAT?$AA?$AA@ 000000018001dc80     libucrt:lcidtoname_downlevel.obj
 0002:00003c90       ??_C@_1M@KBFBEHJF@?$AAe?$AAn?$AA?9?$AAA?$AAU?$AA?$AA@ 000000018001dc90     libucrt:lcidtoname_downlevel.obj
 0002:00003ca0       ??_C@_1M@MNPLFAAH@?$AAe?$AAs?$AA?9?$AAE?$AAS?$AA?$AA@ 000000018001dca0     libucrt:lcidtoname_downlevel.obj
 0002:00003cb0       ??_C@_1M@HJOOJFMA@?$AAf?$AAr?$AA?9?$AAC?$AAA?$AA?$AA@ 000000018001dcb0     libucrt:lcidtoname_downlevel.obj
 0002:00003cc0       ??_C@_1BG@JPOFPNAB@?$AAs?$AAr?$AA?9?$AAS?$AAP?$AA?9?$AAC?$AAy?$AAr?$AAl?$AA?$AA@ 000000018001dcc0     libucrt:lcidtoname_downlevel.obj
 0002:00003cd8       ??_C@_1M@LNFOCMOB@?$AAs?$AAe?$AA?9?$AAF?$AAI?$AA?$AA@ 000000018001dcd8     libucrt:lcidtoname_downlevel.obj
 0002:00003ce8       ??_C@_1O@MGJBOAMB@?$AAq?$AAu?$AAz?$AA?9?$AAP?$AAE?$AA?$AA@ 000000018001dce8     libucrt:lcidtoname_downlevel.obj
 0002:00003cf8       ??_C@_1M@GJINLBOK@?$AAa?$AAr?$AA?9?$AAL?$AAY?$AA?$AA@ 000000018001dcf8     libucrt:lcidtoname_downlevel.obj
 0002:00003d08       ??_C@_1M@GGMNHJNL@?$AAz?$AAh?$AA?9?$AAS?$AAG?$AA?$AA@ 000000018001dd08     libucrt:lcidtoname_downlevel.obj
 0002:00003d18       ??_C@_1M@HOIKODND@?$AAd?$AAe?$AA?9?$AAL?$AAU?$AA?$AA@ 000000018001dd18     libucrt:lcidtoname_downlevel.obj
 0002:00003d28       ??_C@_1M@DDOCCGFG@?$AAe?$AAn?$AA?9?$AAC?$AAA?$AA?$AA@ 000000018001dd28     libucrt:lcidtoname_downlevel.obj
 0002:00003d38       ??_C@_1M@BNOEMJLF@?$AAe?$AAs?$AA?9?$AAG?$AAT?$AA?$AA@ 000000018001dd38     libucrt:lcidtoname_downlevel.obj
 0002:00003d48       ??_C@_1M@EOGNKEK@?$AAf?$AAr?$AA?9?$AAC?$AAH?$AA?$AA@ 000000018001dd48     libucrt:lcidtoname_downlevel.obj
 0002:00003d58       ??_C@_1M@FLIDJFHL@?$AAh?$AAr?$AA?9?$AAB?$AAA?$AA?$AA@ 000000018001dd58     libucrt:lcidtoname_downlevel.obj
 0002:00003d68       ??_C@_1O@FMCELNAJ@?$AAs?$AAm?$AAj?$AA?9?$AAN?$AAO?$AA?$AA@ 000000018001dd68     libucrt:lcidtoname_downlevel.obj
 0002:00003d78       ??_C@_1M@JHGLJMGJ@?$AAa?$AAr?$AA?9?$AAD?$AAZ?$AA?$AA@ 000000018001dd78     libucrt:lcidtoname_downlevel.obj
 0002:00003d88       ??_C@_1M@JKKFDCNP@?$AAz?$AAh?$AA?9?$AAM?$AAO?$AA?$AA@ 000000018001dd88     libucrt:lcidtoname_downlevel.obj
 0002:00003d98       ??_C@_1M@GEEFALPE@?$AAd?$AAe?$AA?9?$AAL?$AAI?$AA?$AA@ 000000018001dd98     libucrt:lcidtoname_downlevel.obj
 0002:00003da8       ??_C@_1M@IGEOFBG@?$AAe?$AAn?$AA?9?$AAN?$AAZ?$AA?$AA@ 000000018001dda8     libucrt:lcidtoname_downlevel.obj
 0002:00003db8       ??_C@_1M@KDBONEHP@?$AAe?$AAs?$AA?9?$AAC?$AAR?$AA?$AA@ 000000018001ddb8     libucrt:lcidtoname_downlevel.obj
 0002:00003dc8       ??_C@_1M@FHMDOHNN@?$AAf?$AAr?$AA?9?$AAL?$AAU?$AA?$AA@ 000000018001ddc8     libucrt:lcidtoname_downlevel.obj
 0002:00003dd8       ??_C@_1BG@NFKKMAFG@?$AAb?$AAs?$AA?9?$AAB?$AAA?$AA?9?$AAL?$AAa?$AAt?$AAn?$AA?$AA@ 000000018001ddd8     libucrt:lcidtoname_downlevel.obj
 0002:00003df0       ??_C@_1O@IMNBEMCI@?$AAs?$AAm?$AAj?$AA?9?$AAS?$AAE?$AA?$AA@ 000000018001ddf0     libucrt:lcidtoname_downlevel.obj
 0002:00003e00       ??_C@_1M@DHHMBNDP@?$AAa?$AAr?$AA?9?$AAM?$AAA?$AA?$AA@ 000000018001de00     libucrt:lcidtoname_downlevel.obj
 0002:00003e10       ??_C@_1M@BNBLJCGH@?$AAe?$AAn?$AA?9?$AAI?$AAE?$AA?$AA@ 000000018001de10     libucrt:lcidtoname_downlevel.obj
 0002:00003e20       ??_C@_1M@GEPAFMDL@?$AAe?$AAs?$AA?9?$AAP?$AAA?$AA?$AA@ 000000018001de20     libucrt:lcidtoname_downlevel.obj
 0002:00003e30       ??_C@_1M@OJONDMDL@?$AAf?$AAr?$AA?9?$AAM?$AAC?$AA?$AA@ 000000018001de30     libucrt:lcidtoname_downlevel.obj
 0002:00003e40       ??_C@_1BG@OBCNFJB@?$AAs?$AAr?$AA?9?$AAB?$AAA?$AA?9?$AAL?$AAa?$AAt?$AAn?$AA?$AA@ 000000018001de40     libucrt:lcidtoname_downlevel.obj
 0002:00003e58       ??_C@_1O@KEMEEGPO@?$AAs?$AAm?$AAa?$AA?9?$AAN?$AAO?$AA?$AA@ 000000018001de58     libucrt:lcidtoname_downlevel.obj
 0002:00003e68       ??_C@_1M@ELMGFODK@?$AAa?$AAr?$AA?9?$AAT?$AAN?$AA?$AA@ 000000018001de68     libucrt:lcidtoname_downlevel.obj
 0002:00003e78       ??_C@_1M@BHDLHFAF@?$AAe?$AAn?$AA?9?$AAZ?$AAA?$AA?$AA@ 000000018001de78     libucrt:lcidtoname_downlevel.obj
 0002:00003e88       ??_C@_1M@BMGIGLIF@?$AAe?$AAs?$AA?9?$AAD?$AAO?$AA?$AA@ 000000018001de88     libucrt:lcidtoname_downlevel.obj
 0002:00003e98       ??_C@_1BG@CMBHIPBE@?$AAs?$AAr?$AA?9?$AAB?$AAA?$AA?9?$AAC?$AAy?$AAr?$AAl?$AA?$AA@ 000000018001de98     libucrt:lcidtoname_downlevel.obj
 0002:00003eb0       ??_C@_1O@HEDBLHNP@?$AAs?$AAm?$AAa?$AA?9?$AAS?$AAE?$AA?$AA@ 000000018001deb0     libucrt:lcidtoname_downlevel.obj
 0002:00003ec0       ??_C@_1M@DAGCADIM@?$AAa?$AAr?$AA?9?$AAO?$AAM?$AA?$AA@ 000000018001dec0     libucrt:lcidtoname_downlevel.obj
 0002:00003ed0       ??_C@_1M@FODLMICG@?$AAe?$AAn?$AA?9?$AAJ?$AAM?$AA?$AA@ 000000018001ded0     libucrt:lcidtoname_downlevel.obj
 0002:00003ee0       ??_C@_1M@DNMLCIHB@?$AAe?$AAs?$AA?9?$AAV?$AAE?$AA?$AA@ 000000018001dee0     libucrt:lcidtoname_downlevel.obj
 0002:00003ef0       ??_C@_1O@EOKHMKJK@?$AAs?$AAm?$AAs?$AA?9?$AAF?$AAI?$AA?$AA@ 000000018001def0     libucrt:lcidtoname_downlevel.obj
 0002:00003f00       ??_C@_1M@CAFJMKOF@?$AAa?$AAr?$AA?9?$AAY?$AAE?$AA?$AA@ 000000018001df00     libucrt:lcidtoname_downlevel.obj
 0002:00003f10       ??_C@_1M@CBFHIJLI@?$AAe?$AAn?$AA?9?$AAC?$AAB?$AA?$AA@ 000000018001df10     libucrt:lcidtoname_downlevel.obj
 0002:00003f20       ??_C@_1M@BGNFLDN@?$AAe?$AAs?$AA?9?$AAC?$AAO?$AA?$AA@ 000000018001df20     libucrt:lcidtoname_downlevel.obj
 0002:00003f30       ??_C@_1O@JMPHMAMC@?$AAs?$AAm?$AAn?$AA?9?$AAF?$AAI?$AA?$AA@ 000000018001df30     libucrt:lcidtoname_downlevel.obj
 0002:00003f40       ??_C@_1M@JLANABKE@?$AAa?$AAr?$AA?9?$AAS?$AAY?$AA?$AA@ 000000018001df40     libucrt:lcidtoname_downlevel.obj
 0002:00003f50       ??_C@_1M@HPKGCFGN@?$AAe?$AAn?$AA?9?$AAB?$AAZ?$AA?$AA@ 000000018001df50     libucrt:lcidtoname_downlevel.obj
 0002:00003f60       ??_C@_1M@OLJCMLGM@?$AAe?$AAs?$AA?9?$AAP?$AAE?$AA?$AA@ 000000018001df60     libucrt:lcidtoname_downlevel.obj
 0002:00003f70       ??_C@_1M@MKKGFKLE@?$AAa?$AAr?$AA?9?$AAJ?$AAO?$AA?$AA@ 000000018001df70     libucrt:lcidtoname_downlevel.obj
 0002:00003f80       ??_C@_1M@EKPGLDNI@?$AAe?$AAn?$AA?9?$AAT?$AAT?$AA?$AA@ 000000018001df80     libucrt:lcidtoname_downlevel.obj
 0002:00003f90       ??_C@_1M@OONGHFHE@?$AAe?$AAs?$AA?9?$AAA?$AAR?$AA?$AA@ 000000018001df90     libucrt:lcidtoname_downlevel.obj
 0002:00003fa0       ??_C@_1M@OOJFGBHE@?$AAa?$AAr?$AA?9?$AAL?$AAB?$AA?$AA@ 000000018001dfa0     libucrt:lcidtoname_downlevel.obj
 0002:00003fb0       ??_C@_1M@GCEJHNEG@?$AAe?$AAn?$AA?9?$AAZ?$AAW?$AA?$AA@ 000000018001dfb0     libucrt:lcidtoname_downlevel.obj
 0002:00003fc0       ??_C@_1M@JNOCAHJI@?$AAe?$AAs?$AA?9?$AAE?$AAC?$AA?$AA@ 000000018001dfc0     libucrt:lcidtoname_downlevel.obj
 0002:00003fd0       ??_C@_1M@JEFHPGGB@?$AAa?$AAr?$AA?9?$AAK?$AAW?$AA?$AA@ 000000018001dfd0     libucrt:lcidtoname_downlevel.obj
 0002:00003fe0       ??_C@_1M@MLKIBJOJ@?$AAe?$AAn?$AA?9?$AAP?$AAH?$AA?$AA@ 000000018001dfe0     libucrt:lcidtoname_downlevel.obj
 0002:00003ff0       ??_C@_1M@BDNIPEND@?$AAe?$AAs?$AA?9?$AAC?$AAL?$AA?$AA@ 000000018001dff0     libucrt:lcidtoname_downlevel.obj
 0002:00004000       ??_C@_1M@MPNMEKBD@?$AAa?$AAr?$AA?9?$AAA?$AAE?$AA?$AA@ 000000018001e000     libucrt:lcidtoname_downlevel.obj
 0002:00004010       ??_C@_1M@KBJALCPI@?$AAe?$AAs?$AA?9?$AAU?$AAY?$AA?$AA@ 000000018001e010     libucrt:lcidtoname_downlevel.obj
 0002:00004020       ??_C@_1M@LLCCOAGA@?$AAa?$AAr?$AA?9?$AAB?$AAH?$AA?$AA@ 000000018001e020     libucrt:lcidtoname_downlevel.obj
 0002:00004030       ??_C@_1M@PBFNCDEL@?$AAe?$AAs?$AA?9?$AAP?$AAY?$AA?$AA@ 000000018001e030     libucrt:lcidtoname_downlevel.obj
 0002:00004040       ??_C@_1M@EDGINPNP@?$AAa?$AAr?$AA?9?$AAQ?$AAA?$AA?$AA@ 000000018001e040     libucrt:lcidtoname_downlevel.obj
 0002:00004050       ??_C@_1M@MKDBIIJI@?$AAe?$AAs?$AA?9?$AAB?$AAO?$AA?$AA@ 000000018001e050     libucrt:lcidtoname_downlevel.obj
 0002:00004060       ??_C@_1M@CPKKEBLD@?$AAe?$AAs?$AA?9?$AAS?$AAV?$AA?$AA@ 000000018001e060     libucrt:lcidtoname_downlevel.obj
 0002:00004070       ??_C@_1M@NDBGMMJL@?$AAe?$AAs?$AA?9?$AAH?$AAN?$AA?$AA@ 000000018001e070     libucrt:lcidtoname_downlevel.obj
 0002:00004080       ??_C@_1M@JIJIBHDP@?$AAe?$AAs?$AA?9?$AAN?$AAI?$AA?$AA@ 000000018001e080     libucrt:lcidtoname_downlevel.obj
 0002:00004090       ??_C@_1M@CGFMKEEK@?$AAe?$AAs?$AA?9?$AAP?$AAR?$AA?$AA@ 000000018001e090     libucrt:lcidtoname_downlevel.obj
 0002:000040a0       ??_C@_1O@ICJHKIIK@?$AAz?$AAh?$AA?9?$AAC?$AAH?$AAT?$AA?$AA@ 000000018001e0a0     libucrt:lcidtoname_downlevel.obj
 0002:000040b0       ??_C@_15CLNEJCE@?$AAs?$AAr?$AA?$AA@ 000000018001e0b0     libucrt:lcidtoname_downlevel.obj
 0002:00004f00       ??_C@_1M@KAHEKEIG@?$AAa?$AAf?$AA?9?$AAz?$AAa?$AA?$AA@ 000000018001ef00     libucrt:lcidtoname_downlevel.obj
 0002:00004f10       ??_C@_1M@GIECOABL@?$AAa?$AAr?$AA?9?$AAa?$AAe?$AA?$AA@ 000000018001ef10     libucrt:lcidtoname_downlevel.obj
 0002:00004f20       ??_C@_1M@BMLMEKGI@?$AAa?$AAr?$AA?9?$AAb?$AAh?$AA?$AA@ 000000018001ef20     libucrt:lcidtoname_downlevel.obj
 0002:00004f30       ??_C@_1M@DAPFDGGB@?$AAa?$AAr?$AA?9?$AAd?$AAz?$AA?$AA@ 000000018001ef30     libucrt:lcidtoname_downlevel.obj
 0002:00004f40       ??_C@_1M@FJNKGKIG@?$AAa?$AAr?$AA?9?$AAe?$AAg?$AA?$AA@ 000000018001ef40     libucrt:lcidtoname_downlevel.obj
 0002:00004f50       ??_C@_1M@FLGKKCLO@?$AAa?$AAr?$AA?9?$AAi?$AAq?$AA?$AA@ 000000018001ef50     libucrt:lcidtoname_downlevel.obj
 0002:00004f60       ??_C@_1M@GNDIPALM@?$AAa?$AAr?$AA?9?$AAj?$AAo?$AA?$AA@ 000000018001ef60     libucrt:lcidtoname_downlevel.obj
 0002:00004f70       ??_C@_1M@DDMJFMGJ@?$AAa?$AAr?$AA?9?$AAk?$AAw?$AA?$AA@ 000000018001ef70     libucrt:lcidtoname_downlevel.obj
 0002:00004f80       ??_C@_1M@EJALMLHM@?$AAa?$AAr?$AA?9?$AAl?$AAb?$AA?$AA@ 000000018001ef80     libucrt:lcidtoname_downlevel.obj
 0002:00004f90       ??_C@_1M@MOBDBLOC@?$AAa?$AAr?$AA?9?$AAl?$AAy?$AA?$AA@ 000000018001ef90     libucrt:lcidtoname_downlevel.obj
 0002:00004fa0       ??_C@_1M@JAOCLHDH@?$AAa?$AAr?$AA?9?$AAm?$AAa?$AA?$AA@ 000000018001efa0     libucrt:lcidtoname_downlevel.obj
 0002:00004fb0       ??_C@_1M@JHPMKJIE@?$AAa?$AAr?$AA?9?$AAo?$AAm?$AA?$AA@ 000000018001efb0     libucrt:lcidtoname_downlevel.obj
 0002:00004fc0       ??_C@_1M@OEPGHFNH@?$AAa?$AAr?$AA?9?$AAq?$AAa?$AA?$AA@ 000000018001efc0     libucrt:lcidtoname_downlevel.obj
 0002:00004fd0       ??_C@_1M@KJDONENM@?$AAa?$AAr?$AA?9?$AAs?$AAa?$AA?$AA@ 000000018001efd0     libucrt:lcidtoname_downlevel.obj
 0002:00004fe0       ??_C@_1M@DMJDKLKM@?$AAa?$AAr?$AA?9?$AAs?$AAy?$AA?$AA@ 000000018001efe0     libucrt:lcidtoname_downlevel.obj
 0002:00004ff0       ??_C@_1M@OMFIPEDC@?$AAa?$AAr?$AA?9?$AAt?$AAn?$AA?$AA@ 000000018001eff0     libucrt:lcidtoname_downlevel.obj
 0002:00005000       ??_C@_1M@IHMHGAON@?$AAa?$AAr?$AA?9?$AAy?$AAe?$AA?$AA@ 000000018001f000     libucrt:lcidtoname_downlevel.obj
 0002:00005010       ??_C@_1BG@KDCPGJGB@?$AAa?$AAz?$AA?9?$AAa?$AAz?$AA?9?$AAc?$AAy?$AAr?$AAl?$AA?$AA@ 000000018001f010     libucrt:lcidtoname_downlevel.obj
 0002:00005028       ??_C@_1BG@IBCKDDOE@?$AAa?$AAz?$AA?9?$AAa?$AAz?$AA?9?$AAl?$AAa?$AAt?$AAn?$AA?$AA@ 000000018001f028     libucrt:lcidtoname_downlevel.obj
 0002:00005040       ??_C@_1M@EGPFDCPD@?$AAb?$AAe?$AA?9?$AAb?$AAy?$AA?$AA@ 000000018001f040     libucrt:lcidtoname_downlevel.obj
 0002:00005050       ??_C@_1M@PCMGMCGC@?$AAb?$AAg?$AA?9?$AAb?$AAg?$AA?$AA@ 000000018001f050     libucrt:lcidtoname_downlevel.obj
 0002:00005060       ??_C@_1M@BJBMFGOB@?$AAb?$AAn?$AA?9?$AAi?$AAn?$AA?$AA@ 000000018001f060     libucrt:lcidtoname_downlevel.obj
 0002:00005070       ??_C@_1BG@EAKMMACD@?$AAb?$AAs?$AA?9?$AAb?$AAa?$AA?9?$AAl?$AAa?$AAt?$AAn?$AA?$AA@ 000000018001f070     libucrt:lcidtoname_downlevel.obj
 0002:00005088       ??_C@_1M@KGADAODK@?$AAc?$AAa?$AA?9?$AAe?$AAs?$AA?$AA@ 000000018001f088     libucrt:lcidtoname_downlevel.obj
 0002:00005098       ??_C@_1M@COAJPDHI@?$AAc?$AAs?$AA?9?$AAc?$AAz?$AA?$AA@ 000000018001f098     libucrt:lcidtoname_downlevel.obj
 0002:000050a8       ??_C@_1M@DHBHFONH@?$AAc?$AAy?$AA?9?$AAg?$AAb?$AA?$AA@ 000000018001f0a8     libucrt:lcidtoname_downlevel.obj
 0002:000050b8       ??_C@_1M@IMGKELGA@?$AAd?$AAa?$AA?9?$AAd?$AAk?$AA?$AA@ 000000018001f0b8     libucrt:lcidtoname_downlevel.obj
 0002:000050c8       ??_C@_1M@NNDGDNGA@?$AAd?$AAe?$AA?9?$AAa?$AAt?$AA?$AA@ 000000018001f0c8     libucrt:lcidtoname_downlevel.obj
 0002:000050d8       ??_C@_1M@IKDBHEEM@?$AAd?$AAe?$AA?9?$AAc?$AAh?$AA?$AA@ 000000018001f0d8     libucrt:lcidtoname_downlevel.obj
 0002:000050e8       ??_C@_1M@GFFOJMCJ@?$AAd?$AAe?$AA?9?$AAd?$AAe?$AA?$AA@ 000000018001f0e8     libucrt:lcidtoname_downlevel.obj
 0002:000050f8       ??_C@_1M@MDNLKBPM@?$AAd?$AAe?$AA?9?$AAl?$AAi?$AA?$AA@ 000000018001f0f8     libucrt:lcidtoname_downlevel.obj
 0002:00005108       ??_C@_1M@NJBEEJNL@?$AAd?$AAe?$AA?9?$AAl?$AAu?$AA?$AA@ 000000018001f108     libucrt:lcidtoname_downlevel.obj
 0002:00005118       ??_C@_1O@GNNELBAP@?$AAd?$AAi?$AAv?$AA?9?$AAm?$AAv?$AA?$AA@ 000000018001f118     libucrt:lcidtoname_downlevel.obj
 0002:00005128       ??_C@_1M@EJLEOGAE@?$AAe?$AAl?$AA?9?$AAg?$AAr?$AA?$AA@ 000000018001f128     libucrt:lcidtoname_downlevel.obj
 0002:00005138       ??_C@_1M@GMPONJN@?$AAe?$AAn?$AA?9?$AAa?$AAu?$AA?$AA@ 000000018001f138     libucrt:lcidtoname_downlevel.obj
 0002:00005148       ??_C@_1M@NIDIIPGF@?$AAe?$AAn?$AA?9?$AAb?$AAz?$AA?$AA@ 000000018001f148     libucrt:lcidtoname_downlevel.obj
 0002:00005158       ??_C@_1M@JEHMIMFO@?$AAe?$AAn?$AA?9?$AAc?$AAa?$AA?$AA@ 000000018001f158     libucrt:lcidtoname_downlevel.obj
 0002:00005168       ??_C@_1M@IGMJCDLA@?$AAe?$AAn?$AA?9?$AAc?$AAb?$AA?$AA@ 000000018001f168     libucrt:lcidtoname_downlevel.obj
 0002:00005178       ??_C@_1M@BNFIGBKG@?$AAe?$AAn?$AA?9?$AAg?$AAb?$AA?$AA@ 000000018001f178     libucrt:lcidtoname_downlevel.obj
 0002:00005188       ??_C@_1M@LKIFDIGP@?$AAe?$AAn?$AA?9?$AAi?$AAe?$AA?$AA@ 000000018001f188     libucrt:lcidtoname_downlevel.obj
 0002:00005198       ??_C@_1M@PJKFGCCO@?$AAe?$AAn?$AA?9?$AAj?$AAm?$AA?$AA@ 000000018001f198     libucrt:lcidtoname_downlevel.obj
 0002:000051a8       ??_C@_1M@KPPKEPBO@?$AAe?$AAn?$AA?9?$AAn?$AAz?$AA?$AA@ 000000018001f1a8     libucrt:lcidtoname_downlevel.obj
 0002:000051b8       ??_C@_1M@GMDGLDOB@?$AAe?$AAn?$AA?9?$AAp?$AAh?$AA?$AA@ 000000018001f1b8     libucrt:lcidtoname_downlevel.obj
 0002:000051c8       ??_C@_1M@ONGIBJNA@?$AAe?$AAn?$AA?9?$AAt?$AAt?$AA?$AA@ 000000018001f1c8     libucrt:lcidtoname_downlevel.obj
 0002:000051d8       ??_C@_1M@LLODPCMM@?$AAe?$AAn?$AA?9?$AAu?$AAs?$AA?$AA@ 000000018001f1d8     libucrt:lcidtoname_downlevel.obj
 0002:000051e8       ??_C@_1M@LAKFNPAN@?$AAe?$AAn?$AA?9?$AAz?$AAa?$AA?$AA@ 000000018001f1e8     libucrt:lcidtoname_downlevel.obj
 0002:000051f8       ??_C@_1M@MFNHNHEO@?$AAe?$AAn?$AA?9?$AAz?$AAw?$AA?$AA@ 000000018001f1f8     libucrt:lcidtoname_downlevel.obj
 0002:00005208       ??_C@_1M@EJEINPHM@?$AAe?$AAs?$AA?9?$AAa?$AAr?$AA?$AA@ 000000018001f208     libucrt:lcidtoname_downlevel.obj
 0002:00005218       ??_C@_1M@GNKPCCJA@?$AAe?$AAs?$AA?9?$AAb?$AAo?$AA?$AA@ 000000018001f218     libucrt:lcidtoname_downlevel.obj
 0002:00005228       ??_C@_1M@LEEGFONL@?$AAe?$AAs?$AA?9?$AAc?$AAl?$AA?$AA@ 000000018001f228     libucrt:lcidtoname_downlevel.obj
 0002:00005238       ??_C@_1M@KGPDPBDF@?$AAe?$AAs?$AA?9?$AAc?$AAo?$AA?$AA@ 000000018001f238     libucrt:lcidtoname_downlevel.obj
 0002:00005248       ??_C@_1M@EIAHOHH@?$AAe?$AAs?$AA?9?$AAc?$AAr?$AA?$AA@ 000000018001f248     libucrt:lcidtoname_downlevel.obj
 0002:00005258       ??_C@_1M@LLPGMBIN@?$AAe?$AAs?$AA?9?$AAd?$AAo?$AA?$AA@ 000000018001f258     libucrt:lcidtoname_downlevel.obj
 0002:00005268       ??_C@_1M@DKHMKNJA@?$AAe?$AAs?$AA?9?$AAe?$AAc?$AA?$AA@ 000000018001f268     libucrt:lcidtoname_downlevel.obj
 0002:00005278       ??_C@_1M@GKGFPKAP@?$AAe?$AAs?$AA?9?$AAe?$AAs?$AA?$AA@ 000000018001f278     libucrt:lcidtoname_downlevel.obj
 0002:00005288       ??_C@_1M@LKHKGDLN@?$AAe?$AAs?$AA?9?$AAg?$AAt?$AA?$AA@ 000000018001f288     libucrt:lcidtoname_downlevel.obj
 0002:00005298       ??_C@_1M@HEIIGGJD@?$AAe?$AAs?$AA?9?$AAh?$AAn?$AA?$AA@ 000000018001f298     libucrt:lcidtoname_downlevel.obj
 0002:000052a8       ??_C@_1M@FBDHPPGD@?$AAe?$AAs?$AA?9?$AAm?$AAx?$AA?$AA@ 000000018001f2a8     libucrt:lcidtoname_downlevel.obj
 0002:000052b8       ??_C@_1M@DPAGLNDH@?$AAe?$AAs?$AA?9?$AAn?$AAi?$AA?$AA@ 000000018001f2b8     libucrt:lcidtoname_downlevel.obj
 0002:000052c8       ??_C@_1M@MDGOPGDD@?$AAe?$AAs?$AA?9?$AAp?$AAa?$AA?$AA@ 000000018001f2c8     libucrt:lcidtoname_downlevel.obj
 0002:000052d8       ??_C@_1M@EMAMGBGE@?$AAe?$AAs?$AA?9?$AAp?$AAe?$AA?$AA@ 000000018001f2d8     libucrt:lcidtoname_downlevel.obj
 0002:000052e8       ??_C@_1M@IBMCAOEC@?$AAe?$AAs?$AA?9?$AAp?$AAr?$AA?$AA@ 000000018001f2e8     libucrt:lcidtoname_downlevel.obj
 0002:000052f8       ??_C@_1M@FGMDIJED@?$AAe?$AAs?$AA?9?$AAp?$AAy?$AA?$AA@ 000000018001f2f8     libucrt:lcidtoname_downlevel.obj
 0002:00005308       ??_C@_1M@IIDEOLLL@?$AAe?$AAs?$AA?9?$AAs?$AAv?$AA?$AA@ 000000018001f308     libucrt:lcidtoname_downlevel.obj
 0002:00005318       ??_C@_1M@GAOBIPA@?$AAe?$AAs?$AA?9?$AAu?$AAy?$AA?$AA@ 000000018001f318     libucrt:lcidtoname_downlevel.obj
 0002:00005328       ??_C@_1M@JKFFICHJ@?$AAe?$AAs?$AA?9?$AAv?$AAe?$AA?$AA@ 000000018001f328     libucrt:lcidtoname_downlevel.obj
 0002:00005338       ??_C@_1M@PNMLOJDF@?$AAe?$AAt?$AA?9?$AAe?$AAe?$AA?$AA@ 000000018001f338     libucrt:lcidtoname_downlevel.obj
 0002:00005348       ??_C@_1M@GHHLIKEI@?$AAe?$AAu?$AA?9?$AAe?$AAs?$AA?$AA@ 000000018001f348     libucrt:lcidtoname_downlevel.obj
 0002:00005358       ??_C@_1M@PBNONODE@?$AAf?$AAa?$AA?9?$AAi?$AAr?$AA?$AA@ 000000018001f358     libucrt:lcidtoname_downlevel.obj
 0002:00005368       ??_C@_1M@JEEHPMIL@?$AAf?$AAi?$AA?9?$AAf?$AAi?$AA?$AA@ 000000018001f368     libucrt:lcidtoname_downlevel.obj
 0002:00005378       ??_C@_1M@LMDCNDBA@?$AAf?$AAo?$AA?9?$AAf?$AAo?$AA?$AA@ 000000018001f378     libucrt:lcidtoname_downlevel.obj
 0002:00005388       ??_C@_1M@JKEOHLDK@?$AAf?$AAr?$AA?9?$AAb?$AAe?$AA?$AA@ 000000018001f388     libucrt:lcidtoname_downlevel.obj
 0002:00005398       ??_C@_1M@NOHADPMI@?$AAf?$AAr?$AA?9?$AAc?$AAa?$AA?$AA@ 000000018001f398     libucrt:lcidtoname_downlevel.obj
 0002:000053a8       ??_C@_1M@KDHIHAEC@?$AAf?$AAr?$AA?9?$AAc?$AAh?$AA?$AA@ 000000018001f3a8     libucrt:lcidtoname_downlevel.obj
 0002:000053b8       ??_C@_1M@MMBBFGAK@?$AAf?$AAr?$AA?9?$AAf?$AAr?$AA?$AA@ 000000018001f3b8     libucrt:lcidtoname_downlevel.obj
 0002:000053c8       ??_C@_1M@PAFNENNF@?$AAf?$AAr?$AA?9?$AAl?$AAu?$AA?$AA@ 000000018001f3c8     libucrt:lcidtoname_downlevel.obj
 0002:000053d8       ??_C@_1M@EOHDJGDD@?$AAf?$AAr?$AA?9?$AAm?$AAc?$AA?$AA@ 000000018001f3d8     libucrt:lcidtoname_downlevel.obj
 0002:000053e8       ??_C@_1M@FAPLLOPF@?$AAg?$AAl?$AA?9?$AAe?$AAs?$AA?$AA@ 000000018001f3e8     libucrt:lcidtoname_downlevel.obj
 0002:000053f8       ??_C@_1M@FOPBFLOO@?$AAg?$AAu?$AA?9?$AAi?$AAn?$AA?$AA@ 000000018001f3f8     libucrt:lcidtoname_downlevel.obj
 0002:00005408       ??_C@_1M@KBMCINPM@?$AAh?$AAe?$AA?9?$AAi?$AAl?$AA?$AA@ 000000018001f408     libucrt:lcidtoname_downlevel.obj
 0002:00005418       ??_C@_1M@BBPHKFPJ@?$AAh?$AAi?$AA?9?$AAi?$AAn?$AA?$AA@ 000000018001f418     libucrt:lcidtoname_downlevel.obj
 0002:00005428       ??_C@_1M@PMBNDPHD@?$AAh?$AAr?$AA?9?$AAb?$AAa?$AA?$AA@ 000000018001f428     libucrt:lcidtoname_downlevel.obj
 0002:00005438       ??_C@_1M@BPCKOEGE@?$AAh?$AAr?$AA?9?$AAh?$AAr?$AA?$AA@ 000000018001f438     libucrt:lcidtoname_downlevel.obj
 0002:00005448       ??_C@_1M@GACBMHKE@?$AAh?$AAu?$AA?9?$AAh?$AAu?$AA?$AA@ 000000018001f448     libucrt:lcidtoname_downlevel.obj
 0002:00005458       ??_C@_1M@MILPAJJC@?$AAh?$AAy?$AA?9?$AAa?$AAm?$AA?$AA@ 000000018001f458     libucrt:lcidtoname_downlevel.obj
 0002:00005468       ??_C@_1M@BABBICEC@?$AAi?$AAd?$AA?9?$AAi?$AAd?$AA?$AA@ 000000018001f468     libucrt:lcidtoname_downlevel.obj
 0002:00005478       ??_C@_1M@BIKNHHPF@?$AAi?$AAs?$AA?9?$AAi?$AAs?$AA?$AA@ 000000018001f478     libucrt:lcidtoname_downlevel.obj
 0002:00005488       ??_C@_1M@NMPCJPHE@?$AAi?$AAt?$AA?9?$AAc?$AAh?$AA?$AA@ 000000018001f488     libucrt:lcidtoname_downlevel.obj
 0002:00005498       ??_C@_1M@GHKGFEDF@?$AAi?$AAt?$AA?9?$AAi?$AAt?$AA?$AA@ 000000018001f498     libucrt:lcidtoname_downlevel.obj
 0002:000054a8       ??_C@_1M@NIEJCJJA@?$AAj?$AAa?$AA?9?$AAj?$AAp?$AA?$AA@ 000000018001f4a8     libucrt:lcidtoname_downlevel.obj
 0002:000054b8       ??_C@_1M@JILFNBIM@?$AAk?$AAa?$AA?9?$AAg?$AAe?$AA?$AA@ 000000018001f4b8     libucrt:lcidtoname_downlevel.obj
 0002:000054c8       ??_C@_1M@PACPMGPH@?$AAk?$AAk?$AA?9?$AAk?$AAz?$AA?$AA@ 000000018001f4c8     libucrt:lcidtoname_downlevel.obj
 0002:000054d8       ??_C@_1M@IELFGMHA@?$AAk?$AAn?$AA?9?$AAi?$AAn?$AA?$AA@ 000000018001f4d8     libucrt:lcidtoname_downlevel.obj
 0002:000054e8       ??_C@_1O@IBBJHCH@?$AAk?$AAo?$AAk?$AA?9?$AAi?$AAn?$AA?$AA@ 000000018001f4e8     libucrt:lcidtoname_downlevel.obj
 0002:000054f8       ??_C@_1M@DMHAEOGC@?$AAk?$AAo?$AA?9?$AAk?$AAr?$AA?$AA@ 000000018001f4f8     libucrt:lcidtoname_downlevel.obj
 0002:00005508       ??_C@_1M@HBAHBIGA@?$AAk?$AAy?$AA?9?$AAk?$AAg?$AA?$AA@ 000000018001f508     libucrt:lcidtoname_downlevel.obj
 0002:00005518       ??_C@_1M@KPMILCJG@?$AAl?$AAt?$AA?9?$AAl?$AAt?$AA?$AA@ 000000018001f518     libucrt:lcidtoname_downlevel.obj
 0002:00005528       ??_C@_1M@BDEKKCA@?$AAl?$AAv?$AA?9?$AAl?$AAv?$AA?$AA@ 000000018001f528     libucrt:lcidtoname_downlevel.obj
 0002:00005538       ??_C@_1M@ELCKCCJJ@?$AAm?$AAi?$AA?9?$AAn?$AAz?$AA?$AA@ 000000018001f538     libucrt:lcidtoname_downlevel.obj
 0002:00005548       ??_C@_1M@CBOOLAPA@?$AAm?$AAk?$AA?9?$AAm?$AAk?$AA?$AA@ 000000018001f548     libucrt:lcidtoname_downlevel.obj
 0002:00005558       ??_C@_1M@GPHNBJKN@?$AAm?$AAl?$AA?9?$AAi?$AAn?$AA?$AA@ 000000018001f558     libucrt:lcidtoname_downlevel.obj
 0002:00005568       ??_C@_1M@PABJILIG@?$AAm?$AAn?$AA?9?$AAm?$AAn?$AA?$AA@ 000000018001f568     libucrt:lcidtoname_downlevel.obj
 0002:00005578       ??_C@_1M@FGBKKIPG@?$AAm?$AAr?$AA?9?$AAi?$AAn?$AA?$AA@ 000000018001f578     libucrt:lcidtoname_downlevel.obj
 0002:00005588       ??_C@_1M@NDBPDDAL@?$AAm?$AAs?$AA?9?$AAb?$AAn?$AA?$AA@ 000000018001f588     libucrt:lcidtoname_downlevel.obj
 0002:00005598       ??_C@_1M@OPIHOOPI@?$AAm?$AAs?$AA?9?$AAm?$AAy?$AA?$AA@ 000000018001f598     libucrt:lcidtoname_downlevel.obj
 0002:000055a8       ??_C@_1M@PPDBCNFM@?$AAm?$AAt?$AA?9?$AAm?$AAt?$AA?$AA@ 000000018001f5a8     libucrt:lcidtoname_downlevel.obj
 0002:000055b8       ??_C@_1M@KDJDKMDD@?$AAn?$AAb?$AA?9?$AAn?$AAo?$AA?$AA@ 000000018001f5b8     libucrt:lcidtoname_downlevel.obj
 0002:000055c8       ??_C@_1M@KFCFLMJP@?$AAn?$AAl?$AA?9?$AAb?$AAe?$AA?$AA@ 000000018001f5c8     libucrt:lcidtoname_downlevel.obj
 0002:000055d8       ??_C@_1M@KPOPDDGO@?$AAn?$AAl?$AA?9?$AAn?$AAl?$AA?$AA@ 000000018001f5d8     libucrt:lcidtoname_downlevel.obj
 0002:000055e8       ??_C@_1M@LJKPEMLN@?$AAn?$AAn?$AA?9?$AAn?$AAo?$AA?$AA@ 000000018001f5e8     libucrt:lcidtoname_downlevel.obj
 0002:000055f8       ??_C@_1M@BDGHHBFL@?$AAn?$AAs?$AA?9?$AAz?$AAa?$AA?$AA@ 000000018001f5f8     libucrt:lcidtoname_downlevel.obj
 0002:00005608       ??_C@_1M@IDEHOAP@?$AAp?$AAa?$AA?9?$AAi?$AAn?$AA?$AA@ 000000018001f608     libucrt:lcidtoname_downlevel.obj
 0002:00005618       ??_C@_1M@HDBKGOGH@?$AAp?$AAl?$AA?9?$AAp?$AAl?$AA?$AA@ 000000018001f618     libucrt:lcidtoname_downlevel.obj
 0002:00005628       ??_C@_1M@LJLLCMEH@?$AAp?$AAt?$AA?9?$AAb?$AAr?$AA?$AA@ 000000018001f628     libucrt:lcidtoname_downlevel.obj
 0002:00005638       ??_C@_1M@NCMONAAL@?$AAp?$AAt?$AA?9?$AAp?$AAt?$AA?$AA@ 000000018001f638     libucrt:lcidtoname_downlevel.obj
 0002:00005648       ??_C@_1O@EAKMAJDN@?$AAq?$AAu?$AAz?$AA?9?$AAb?$AAo?$AA?$AA@ 000000018001f648     libucrt:lcidtoname_downlevel.obj
 0002:00005658       ??_C@_1O@BHHPIGDN@?$AAq?$AAu?$AAz?$AA?9?$AAe?$AAc?$AA?$AA@ 000000018001f658     libucrt:lcidtoname_downlevel.obj
 0002:00005668       ??_C@_1O@GBAPEKMJ@?$AAq?$AAu?$AAz?$AA?9?$AAp?$AAe?$AA?$AA@ 000000018001f668     libucrt:lcidtoname_downlevel.obj
 0002:00005678       ??_C@_1M@CLGLEFBO@?$AAr?$AAo?$AA?9?$AAr?$AAo?$AA?$AA@ 000000018001f678     libucrt:lcidtoname_downlevel.obj
 0002:00005688       ??_C@_1M@CEEDODME@?$AAr?$AAu?$AA?9?$AAr?$AAu?$AA?$AA@ 000000018001f688     libucrt:lcidtoname_downlevel.obj
 0002:00005698       ??_C@_1M@HPKKKMPP@?$AAs?$AAa?$AA?9?$AAi?$AAn?$AA?$AA@ 000000018001f698     libucrt:lcidtoname_downlevel.obj
 0002:000056a8       ??_C@_1M@BKMAIGOJ@?$AAs?$AAe?$AA?9?$AAf?$AAi?$AA?$AA@ 000000018001f6a8     libucrt:lcidtoname_downlevel.obj
 0002:000056b8       ??_C@_1M@NDPIFLFI@?$AAs?$AAe?$AA?9?$AAn?$AAo?$AA?$AA@ 000000018001f6b8     libucrt:lcidtoname_downlevel.obj
 0002:000056c8       ??_C@_1M@DANKKHJ@?$AAs?$AAe?$AA?9?$AAs?$AAe?$AA?$AA@ 000000018001f6c8     libucrt:lcidtoname_downlevel.obj
 0002:000056d8       ??_C@_1M@PNBLONPJ@?$AAs?$AAk?$AA?9?$AAs?$AAk?$AA?$AA@ 000000018001f6d8     libucrt:lcidtoname_downlevel.obj
 0002:000056e8       ??_C@_1M@LFMODOAL@?$AAs?$AAl?$AA?9?$AAs?$AAi?$AA?$AA@ 000000018001f6e8     libucrt:lcidtoname_downlevel.obj
 0002:000056f8       ??_C@_1O@DFKOMPG@?$AAs?$AAm?$AAa?$AA?9?$AAn?$AAo?$AA?$AA@ 000000018001f6f8     libucrt:lcidtoname_downlevel.obj
 0002:00005708       ??_C@_1O@NDKPBNNH@?$AAs?$AAm?$AAa?$AA?9?$AAs?$AAe?$AA?$AA@ 000000018001f708     libucrt:lcidtoname_downlevel.obj
 0002:00005718       ??_C@_1O@PLLKBHAB@?$AAs?$AAm?$AAj?$AA?9?$AAn?$AAo?$AA?$AA@ 000000018001f718     libucrt:lcidtoname_downlevel.obj
 0002:00005728       ??_C@_1O@CLEPOGCA@?$AAs?$AAm?$AAj?$AA?9?$AAs?$AAe?$AA?$AA@ 000000018001f728     libucrt:lcidtoname_downlevel.obj
 0002:00005738       ??_C@_1O@DLGJGKMK@?$AAs?$AAm?$AAn?$AA?9?$AAf?$AAi?$AA?$AA@ 000000018001f738     libucrt:lcidtoname_downlevel.obj
 0002:00005748       ??_C@_1O@OJDJGAJC@?$AAs?$AAm?$AAs?$AA?9?$AAf?$AAi?$AA?$AA@ 000000018001f748     libucrt:lcidtoname_downlevel.obj
 0002:00005758       ??_C@_1M@BOFOGHPB@?$AAs?$AAq?$AA?9?$AAa?$AAl?$AA?$AA@ 000000018001f758     libucrt:lcidtoname_downlevel.obj
 0002:00005768       ??_C@_1BG@LJBBIPGB@?$AAs?$AAr?$AA?9?$AAb?$AAa?$AA?9?$AAc?$AAy?$AAr?$AAl?$AA?$AA@ 000000018001f768     libucrt:lcidtoname_downlevel.obj
 0002:00005780       ??_C@_1BG@JLBENFOE@?$AAs?$AAr?$AA?9?$AAb?$AAa?$AA?9?$AAl?$AAa?$AAt?$AAn?$AA?$AA@ 000000018001f780     libucrt:lcidtoname_downlevel.obj
 0002:00005798       ??_C@_1BG@KODPNHE@?$AAs?$AAr?$AA?9?$AAs?$AAp?$AA?9?$AAc?$AAy?$AAr?$AAl?$AA?$AA@ 000000018001f798     libucrt:lcidtoname_downlevel.obj
 0002:000057b0       ??_C@_1BG@CIOGKHPB@?$AAs?$AAr?$AA?9?$AAs?$AAp?$AA?9?$AAl?$AAa?$AAt?$AAn?$AA?$AA@ 000000018001f7b0     libucrt:lcidtoname_downlevel.obj
 0002:000057c8       ??_C@_1M@NGFJLMAC@?$AAs?$AAv?$AA?9?$AAf?$AAi?$AA?$AA@ 000000018001f7c8     libucrt:lcidtoname_downlevel.obj
 0002:000057d8       ??_C@_1M@MPJEJAJC@?$AAs?$AAv?$AA?9?$AAs?$AAe?$AA?$AA@ 000000018001f7d8     libucrt:lcidtoname_downlevel.obj
 0002:000057e8       ??_C@_1M@MPNDHLFK@?$AAs?$AAw?$AA?9?$AAk?$AAe?$AA?$AA@ 000000018001f7e8     libucrt:lcidtoname_downlevel.obj
 0002:000057f8       ??_C@_1O@KOHBJJI@?$AAs?$AAy?$AAr?$AA?9?$AAs?$AAy?$AA?$AA@ 000000018001f7f8     libucrt:lcidtoname_downlevel.obj
 0002:00005808       ??_C@_1M@LDCEFHA@?$AAt?$AAa?$AA?9?$AAi?$AAn?$AA?$AA@ 000000018001f808     libucrt:lcidtoname_downlevel.obj
 0002:00005818       ??_C@_1M@CNJOFAK@?$AAt?$AAe?$AA?9?$AAi?$AAn?$AA?$AA@ 000000018001f818     libucrt:lcidtoname_downlevel.obj
 0002:00005828       ??_C@_1M@GNAECACD@?$AAt?$AAh?$AA?9?$AAt?$AAh?$AA?$AA@ 000000018001f828     libucrt:lcidtoname_downlevel.obj
 0002:00005838       ??_C@_1M@CHBIHOJO@?$AAt?$AAn?$AA?9?$AAz?$AAa?$AA?$AA@ 000000018001f838     libucrt:lcidtoname_downlevel.obj
 0002:00005848       ??_C@_1M@GCCMIGPJ@?$AAt?$AAr?$AA?9?$AAt?$AAr?$AA?$AA@ 000000018001f848     libucrt:lcidtoname_downlevel.obj
 0002:00005858       ??_C@_1M@CELMCNBK@?$AAt?$AAt?$AA?9?$AAr?$AAu?$AA?$AA@ 000000018001f858     libucrt:lcidtoname_downlevel.obj
 0002:00005868       ??_C@_1M@KLMCELGA@?$AAu?$AAk?$AA?9?$AAu?$AAa?$AA?$AA@ 000000018001f868     libucrt:lcidtoname_downlevel.obj
 0002:00005878       ??_C@_1M@EPAJJAJF@?$AAu?$AAr?$AA?9?$AAp?$AAk?$AA?$AA@ 000000018001f878     libucrt:lcidtoname_downlevel.obj
 0002:00005888       ??_C@_1BG@GEGPMCDJ@?$AAu?$AAz?$AA?9?$AAu?$AAz?$AA?9?$AAc?$AAy?$AAr?$AAl?$AA?$AA@ 000000018001f888     libucrt:lcidtoname_downlevel.obj
 0002:000058a0       ??_C@_1BG@EGGKJILM@?$AAu?$AAz?$AA?9?$AAu?$AAz?$AA?9?$AAl?$AAa?$AAt?$AAn?$AA?$AA@ 000000018001f8a0     libucrt:lcidtoname_downlevel.obj
 0002:000058b8       ??_C@_1M@GFOCLFF@?$AAv?$AAi?$AA?9?$AAv?$AAn?$AA?$AA@ 000000018001f8b8     libucrt:lcidtoname_downlevel.obj
 0002:000058c8       ??_C@_1M@CPAMEDFI@?$AAx?$AAh?$AA?9?$AAz?$AAa?$AA?$AA@ 000000018001f8c8     libucrt:lcidtoname_downlevel.obj
 0002:000058d8       ??_C@_1O@EBKIFIGN@?$AAz?$AAh?$AA?9?$AAc?$AAh?$AAs?$AA?$AA@ 000000018001f8d8     libucrt:lcidtoname_downlevel.obj
 0002:000058e8       ??_C@_1O@NMHPGANE@?$AAz?$AAh?$AA?9?$AAc?$AAh?$AAt?$AA?$AA@ 000000018001f8e8     libucrt:lcidtoname_downlevel.obj
 0002:000058f8       ??_C@_1M@LPINJOMC@?$AAz?$AAh?$AA?9?$AAc?$AAn?$AA?$AA@ 000000018001f8f8     libucrt:lcidtoname_downlevel.obj
 0002:00005908       ??_C@_1M@OCJEJODD@?$AAz?$AAh?$AA?9?$AAh?$AAk?$AA?$AA@ 000000018001f908     libucrt:lcidtoname_downlevel.obj
 0002:00005918       ??_C@_1M@DNDLJINH@?$AAz?$AAh?$AA?9?$AAm?$AAo?$AA?$AA@ 000000018001f918     libucrt:lcidtoname_downlevel.obj
 0002:00005928       ??_C@_1M@MBFDNDND@?$AAz?$AAh?$AA?9?$AAs?$AAg?$AA?$AA@ 000000018001f928     libucrt:lcidtoname_downlevel.obj
 0002:00005938       ??_C@_1M@IMEPLEPE@?$AAz?$AAh?$AA?9?$AAt?$AAw?$AA?$AA@ 000000018001f938     libucrt:lcidtoname_downlevel.obj
 0002:00005948       ??_C@_1M@BBGHNHJP@?$AAz?$AAu?$AA?9?$AAz?$AAa?$AA?$AA@ 000000018001f948     libucrt:lcidtoname_downlevel.obj
 0002:000067a0       ??_C@_15EMKDOKLE@?$AAa?$AAr?$AA?$AA@ 00000001800207a0     libucrt:lcidtoname_downlevel.obj
 0002:000067a8       ??_C@_15KNPADPLH@?$AAb?$AAg?$AA?$AA@ 00000001800207a8     libucrt:lcidtoname_downlevel.obj
 0002:000067b0       ??_C@_15EDMHLDMO@?$AAc?$AAa?$AA?$AA@ 00000001800207b0     libucrt:lcidtoname_downlevel.obj
 0002:000067b8       ??_C@_1O@BPEAJADD@?$AAz?$AAh?$AA?9?$AAC?$AAH?$AAS?$AA?$AA@ 00000001800207b8     libucrt:lcidtoname_downlevel.obj
 0002:000067c8       ??_C@_15LJNHCMNK@?$AAc?$AAs?$AA?$AA@ 00000001800207c8     libucrt:lcidtoname_downlevel.obj
 0002:000067d0       ??_C@_15FOMCIDHG@?$AAd?$AAa?$AA?$AA@ 00000001800207d0     libucrt:lcidtoname_downlevel.obj
 0002:000067d8       ??_C@_15NBKABECB@?$AAd?$AAe?$AA?$AA@ 00000001800207d8     libucrt:lcidtoname_downlevel.obj
 0002:000067e0       ??_C@_15GHPEIIAO@?$AAe?$AAl?$AA?$AA@ 00000001800207e0     libucrt:lcidtoname_downlevel.obj
 0002:000067e8       ??_C@_15MNPNEAIF@?$AAe?$AAn?$AA?$AA@ 00000001800207e8     libucrt:lcidtoname_downlevel.obj
 0002:000067f0       ??_C@_15GPIOMPMH@?$AAe?$AAs?$AA?$AA@ 00000001800207f0     libucrt:lcidtoname_downlevel.obj
 0002:000067f8       ??_C@_15NGLOAKJC@?$AAf?$AAi?$AA?$AA@ 00000001800207f8     libucrt:lcidtoname_downlevel.obj
 0002:00006800       ??_C@_15FBKGNKAM@?$AAf?$AAr?$AA?$AA@ 0000000180020800     libucrt:lcidtoname_downlevel.obj
 0002:00006808       ??_C@_15KGGCNEFK@?$AAh?$AAe?$AA?$AA@ 0000000180020808     libucrt:lcidtoname_downlevel.obj
 0002:00006810       ??_C@_15PGHLIDMF@?$AAh?$AAu?$AA?$AA@ 0000000180020810     libucrt:lcidtoname_downlevel.obj
 0002:00006818       ??_C@_15BIEMAPLM@?$AAi?$AAs?$AA?$AA@ 0000000180020818     libucrt:lcidtoname_downlevel.obj
 0002:00006820       ??_C@_15IFJLDHAF@?$AAi?$AAt?$AA?$AA@ 0000000180020820     libucrt:lcidtoname_downlevel.obj
 0002:00006828       ??_C@_15GEMIOCAG@?$AAj?$AAa?$AA?$AA@ 0000000180020828     libucrt:lcidtoname_downlevel.obj
 0002:00006830       ??_C@_15EPELEGJA@?$AAk?$AAo?$AA?$AA@ 0000000180020830     libucrt:lcidtoname_downlevel.obj
 0002:00006838       ??_C@_15NDDHIMN@?$AAn?$AAl?$AA?$AA@ 0000000180020838     libucrt:lcidtoname_downlevel.obj
 0002:00006840       ??_C@_15BPIGNHCD@?$AAn?$AAo?$AA?$AA@ 0000000180020840     libucrt:lcidtoname_downlevel.obj
 0002:00006848       ??_C@_15DEOPBLCG@?$AAp?$AAl?$AA?$AA@ 0000000180020848     libucrt:lcidtoname_downlevel.obj
 0002:00006850       ??_C@_15KBECGEFG@?$AAp?$AAt?$AA?$AA@ 0000000180020850     libucrt:lcidtoname_downlevel.obj
 0002:00006858       ??_C@_15GLJCBFMD@?$AAr?$AAo?$AA?$AA@ 0000000180020858     libucrt:lcidtoname_downlevel.obj
 0002:00006860       ??_C@_15FEDGKCDI@?$AAr?$AAu?$AA?$AA@ 0000000180020860     libucrt:lcidtoname_downlevel.obj
 0002:00006868       ??_C@_15GLKMLLHM@?$AAh?$AAr?$AA?$AA@ 0000000180020868     libucrt:lcidtoname_downlevel.obj
 0002:00006870       ??_C@_15CPKMFBDB@?$AAs?$AAk?$AA?$AA@ 0000000180020870     libucrt:lcidtoname_downlevel.obj
 0002:00006878       ??_C@_15BAAIOGMK@?$AAs?$AAq?$AA?$AA@ 0000000180020878     libucrt:lcidtoname_downlevel.obj
 0002:00006880       ??_C@_15INNPNOHD@?$AAs?$AAv?$AA?$AA@ 0000000180020880     libucrt:lcidtoname_downlevel.obj
 0002:00006888       ??_C@_15CABMMOGH@?$AAt?$AAh?$AA?$AA@ 0000000180020888     libucrt:lcidtoname_downlevel.obj
 0002:00006890       ??_C@_15BPLIHJJM@?$AAt?$AAr?$AA?$AA@ 0000000180020890     libucrt:lcidtoname_downlevel.obj
 0002:00006898       ??_C@_15NEOEKKDJ@?$AAu?$AAr?$AA?$AA@ 0000000180020898     libucrt:lcidtoname_downlevel.obj
 0002:000068a0       ??_C@_15NFICGAJK@?$AAi?$AAd?$AA?$AA@ 00000001800208a0     libucrt:lcidtoname_downlevel.obj
 0002:000068a8       ??_C@_15HPJPHDM@?$AAb?$AAe?$AA?$AA@ 00000001800208a8     libucrt:lcidtoname_downlevel.obj
 0002:000068b0       ??_C@_15LCHLGJII@?$AAs?$AAl?$AA?$AA@ 00000001800208b0     libucrt:lcidtoname_downlevel.obj
 0002:000068b8       ??_C@_15PCFJPHHO@?$AAe?$AAt?$AA?$AA@ 00000001800208b8     libucrt:lcidtoname_downlevel.obj
 0002:000068c0       ??_C@_15HPFPGODN@?$AAl?$AAv?$AA?$AA@ 00000001800208c0     libucrt:lcidtoname_downlevel.obj
 0002:000068c8       ??_C@_15NFFGKGLG@?$AAl?$AAt?$AA?$AA@ 00000001800208c8     libucrt:lcidtoname_downlevel.obj
 0002:000068d0       ??_C@_15BDAKCCHN@?$AAf?$AAa?$AA?$AA@ 00000001800208d0     libucrt:lcidtoname_downlevel.obj
 0002:000068d8       ??_C@_15NFGIAIAJ@?$AAv?$AAi?$AA?$AA@ 00000001800208d8     libucrt:lcidtoname_downlevel.obj
 0002:000068e0       ??_C@_15LMKNDMHN@?$AAh?$AAy?$AA?$AA@ 00000001800208e0     libucrt:lcidtoname_downlevel.obj
 0002:000068e8       ??_C@_15IJBHMCFL@?$AAa?$AAz?$AA?$AA@ 00000001800208e8     libucrt:lcidtoname_downlevel.obj
 0002:000068f0       ??_C@_15EKOFJABL@?$AAe?$AAu?$AA?$AA@ 00000001800208f0     libucrt:lcidtoname_downlevel.obj
 0002:000068f8       ??_C@_15BGHADCNK@?$AAm?$AAk?$AA?$AA@ 00000001800208f8     libucrt:lcidtoname_downlevel.obj
 0002:00006900       ??_C@_15JDNICKHM@?$AAa?$AAf?$AA?$AA@ 0000000180020900     libucrt:lcidtoname_downlevel.obj
 0002:00006908       ??_C@_15KPJEDBKD@?$AAk?$AAa?$AA?$AA@ 0000000180020908     libucrt:lcidtoname_downlevel.obj
 0002:00006910       ??_C@_15PDNFFFEO@?$AAf?$AAo?$AA?$AA@ 0000000180020910     libucrt:lcidtoname_downlevel.obj
 0002:00006918       ??_C@_15OMLEGLOC@?$AAh?$AAi?$AA?$AA@ 0000000180020918     libucrt:lcidtoname_downlevel.obj
 0002:00006920       ??_C@_15IDNNENKK@?$AAm?$AAs?$AA?$AA@ 0000000180020920     libucrt:lcidtoname_downlevel.obj
 0002:00006928       ??_C@_15MACJNBMH@?$AAk?$AAk?$AA?$AA@ 0000000180020928     libucrt:lcidtoname_downlevel.obj
 0002:00006930       ??_C@_15DKDJEOND@?$AAk?$AAy?$AA?$AA@ 0000000180020930     libucrt:lcidtoname_downlevel.obj
 0002:00006938       ??_C@_15DFGDLJBG@?$AAs?$AAw?$AA?$AA@ 0000000180020938     libucrt:lcidtoname_downlevel.obj
 0002:00006940       ??_C@_15BBFAICNG@?$AAu?$AAz?$AA?$AA@ 0000000180020940     libucrt:lcidtoname_downlevel.obj
 0002:00006948       ??_C@_15DKNDCGEA@?$AAt?$AAt?$AA?$AA@ 0000000180020948     libucrt:lcidtoname_downlevel.obj
 0002:00006950       ??_C@_15MGIFMDPL@?$AAp?$AAa?$AA?$AA@ 0000000180020950     libucrt:lcidtoname_downlevel.obj
 0002:00006958       ??_C@_15HCNDBBA@?$AAg?$AAu?$AA?$AA@ 0000000180020958     libucrt:lcidtoname_downlevel.obj
 0002:00006960       ??_C@_15FNBEIBON@?$AAt?$AAa?$AA?$AA@ 0000000180020960     libucrt:lcidtoname_downlevel.obj
 0002:00006968       ??_C@_15NCHGBGLK@?$AAt?$AAe?$AA?$AA@ 0000000180020968     libucrt:lcidtoname_downlevel.obj
 0002:00006970       ??_C@_15PHPHCBPF@?$AAk?$AAn?$AA?$AA@ 0000000180020970     libucrt:lcidtoname_downlevel.obj
 0002:00006978       ??_C@_15DLGBCKMP@?$AAm?$AAr?$AA?$AA@ 0000000180020978     libucrt:lcidtoname_downlevel.obj
 0002:00006980       ??_C@_15EABBLBFF@?$AAs?$AAa?$AA?$AA@ 0000000180020980     libucrt:lcidtoname_downlevel.obj
 0002:00006988       ??_C@_15CBKOMCOI@?$AAm?$AAn?$AA?$AA@ 0000000180020988     libucrt:lcidtoname_downlevel.obj
 0002:00006990       ??_C@_15CKDMCJAF@?$AAg?$AAl?$AA?$AA@ 0000000180020990     libucrt:lcidtoname_downlevel.obj
 0002:00006998       ??_C@_17CNJFBPG@?$AAk?$AAo?$AAk?$AA?$AA@ 0000000180020998     libucrt:lcidtoname_downlevel.obj
 0002:000069a0       ??_C@_17FFBJICPL@?$AAs?$AAy?$AAr?$AA?$AA@ 00000001800209a0     libucrt:lcidtoname_downlevel.obj
 0002:000069a8       ??_C@_17KPNDCPAF@?$AAd?$AAi?$AAv?$AA?$AA@ 00000001800209a8     libucrt:lcidtoname_downlevel.obj
 0002:000069b0       ??_C@_11LOCGONAA@?$AA?$AA@ 00000001800209b0     libucrt:lcidtoname_downlevel.obj
 0002:000069b8       ??_C@_1M@OKAHONE@?$AAa?$AAr?$AA?9?$AAS?$AAA?$AA?$AA@ 00000001800209b8     libucrt:lcidtoname_downlevel.obj
 0002:000069c8       ??_C@_1M@FFFIGIGK@?$AAb?$AAg?$AA?9?$AAB?$AAG?$AA?$AA@ 00000001800209c8     libucrt:lcidtoname_downlevel.obj
 0002:000069d8       __real@3ff0000000000000    00000001800209d8     libucrt:ceil.obj
 0002:00006c30       __log10_256_lead           0000000180020c30     libucrt:log10_256_lead_tail_table.obj
 0002:00007440       __log10_256_tail           0000000180021440     libucrt:log10_256_lead_tail_table.obj
 0002:00007c50       __log_F_inv_qword          0000000180021c50     libucrt:log_f_inv_qword_table.obj
 0002:00008460       ??_C@_05HGHHAHAP@log10?$AA@ 0000000180022460     libucrt:log_special.obj
 0002:00008468       ??_C@_1BA@BALFACEM@?$AAC?$AAO?$AAN?$AAO?$AAU?$AAT?$AA$?$AA?$AA@ 0000000180022468     libucrt:initcon.obj
 0002:00008490       ??_C@_1BK@DBDEIDLH@?$AAK?$AAE?$AAR?$AAN?$AAE?$AAL?$AA3?$AA2?$AA?4?$AAD?$AAL?$AAL@ 0000000180022490     DelayImp:delayhlp.obj
 0002:000084b0       ??_C@_0BI@OMNLIJDB@AcquireSRWLockExclusive@ 00000001800224b0     DelayImp:delayhlp.obj
 0002:000084c8       ??_C@_0BI@HMIEPCNJ@ReleaseSRWLockExclusive@ 00000001800224c8     DelayImp:delayhlp.obj
 0002:000084e0       __pfnDliFailureHook2       00000001800224e0     DelayImp:delayhk1.obj
 0002:000084f0       _load_config_used          00000001800224f0     LIBCMT:loadcfg.obj
 0002:00009638       ??_C@_01JLIPDDHJ@?3@       0000000180023638     bcrypt.obj
 0002:0000963c       ??_C@_06DBKFHKEO@?$CF2?42u$@ 000000018002363c     bcrypt.obj
 0002:00009648       ??_C@_0BJ@POGCKMIM@OrpheanBeholderScryDoubt@ 0000000180023648     bcrypt.obj
 0002:000096f8       __pfnDliNotifyHook2        00000001800236f8     win_delay_load_hook.obj
 0002:00009748       ??_C@_0BA@JFNIOLAK@string?5too?5long@ 0000000180023748     bcrypt_node.obj
 0002:00009760       ??_C@_1LG@DEAEHMDF@?$AAc?$AA?3?$AA?2?$AAu?$AAs?$AAe?$AAr?$AAs?$AA?2?$AAa?$AAb?$AAh?$AAi?$AAs?$AA?2@ 0000000180023760     bcrypt_node.obj
 0002:00009818       ??_C@_1BO@OPFMAOCA@?$AAl?$AAe?$AAn?$AA?5?$AA?$DM?$AA?$DN?$AA?5?$AAI?$AAN?$AAT?$AA_?$AAM?$AAA?$AAX@ 0000000180023818     bcrypt_node.obj
 0002:00009838       ??_C@_1BE@CKDJNAPC@?$AAs?$AAt?$AAr?$AA_?$AA?5?$AA?$CB?$AA?$DN?$AA?5?$AA0@ 0000000180023838     bcrypt_node.obj
 0002:00009850       ??_C@_0BH@LPLGJHBC@bcrypt?3SaltAsyncWorker@ 0000000180023850     bcrypt_node.obj
 0002:00009868       ??_C@_0BF@JJAOJML@4?5arguments?5expected@ 0000000180023868     bcrypt_node.obj
 0002:00009880       ??_C@_0CA@PHEBDBMF@First?5argument?5must?5be?5a?5string@ 0000000180023880     bcrypt_node.obj
 0002:000098a0       ??_C@_0CI@LODHLGED@Third?5argument?5must?5be?5a?516?5byt@ 00000001800238a0     bcrypt_node.obj
 0002:000098c8       ??_C@_0BF@PPKNOMAN@2?5arguments?5expected@ 00000001800238c8     bcrypt_node.obj
 0002:000098e0       ??_C@_0BK@JFPGIDFM@bcrypt?3EncryptAsyncWorker@ 00000001800238e0     bcrypt_node.obj
 0002:00009900       ??_C@_0EL@CMNNFDGM@Invalid?5salt?4?5Salt?5must?5be?5in?5t@ 0000000180023900     bcrypt_node.obj
 0002:00009950       ??_C@_0BF@GAHHGPJD@3?5arguments?5expected@ 0000000180023950     bcrypt_node.obj
 0002:00009968       ??_C@_0BK@CCOIALGB@bcrypt?3CompareAsyncWorker@ 0000000180023968     bcrypt_node.obj
 0002:00009988       ??_C@_0BE@EAONHFGE@1?5argument?5expected@ 0000000180023988     bcrypt_node.obj
 0002:000099a0       ??_C@_0BG@DLBGHIFJ@invalid?5hash?5provided@ 00000001800239a0     bcrypt_node.obj
 0002:000099b8       ??_C@_0O@GOKMKHLN@gen_salt_sync@ 00000001800239b8     bcrypt_node.obj
 0002:000099c8       ??_C@_0N@KIMNMLPJ@encrypt_sync@ 00000001800239c8     bcrypt_node.obj
 0002:000099d8       ??_C@_0N@FBJKNDBO@compare_sync@ 00000001800239d8     bcrypt_node.obj
 0002:000099e8       ??_C@_0L@NIECKLOE@get_rounds@ 00000001800239e8     bcrypt_node.obj
 0002:000099f8       ??_C@_08KINIKALG@gen_salt@ 00000001800239f8     bcrypt_node.obj
 0002:00009a08       ??_C@_07NNLIEMBO@encrypt@  0000000180023a08     bcrypt_node.obj
 0002:00009a10       ??_C@_07DIJKPEDD@compare@  0000000180023a10     bcrypt_node.obj
 0002:00009a20       ??_C@_0GL@FNJADMCJ@c?3?2users?2abhis?2se?2sih?21_alumnit@ 0000000180023a20     bcrypt_node.obj
 0002:00009a90       ??_C@_0L@GMPPMJKG@bcrypt_lib@ 0000000180023a90     bcrypt_node.obj
 0002:00009aa0       ??_7AsyncWorker@Nan@@6B@   0000000180023aa0     bcrypt_node.obj
 0002:00009b60       ??_C@_08HCOMDCCD@iojs?4exe@ 0000000180023b60     win_delay_load_hook.obj
 0002:00009b70       ??_C@_08JDDNMFDB@node?4exe@ 0000000180023b70     win_delay_load_hook.obj
 0002:00009b80       __real@bff0000000000000    0000000180023b80     bcrypt_node.obj
 0002:00009b90       __xmm@000000000000000f0000000000000000 0000000180023b90     bcrypt_node.obj
 0002:00009c10       ??_R4exception@std@@6B@    0000000180023c10     LIBCMT:throw_bad_alloc.obj
 0002:00009c38       ??_R3exception@std@@8      0000000180023c38     LIBCMT:throw_bad_alloc.obj
 0002:00009c50       ??_R2exception@std@@8      0000000180023c50     LIBCMT:throw_bad_alloc.obj
 0002:00009c60       ??_R1A@?0A@EA@exception@std@@8 0000000180023c60     LIBCMT:throw_bad_alloc.obj
 0002:00009c88       ??_R4bad_alloc@std@@6B@    0000000180023c88     LIBCMT:throw_bad_alloc.obj
 0002:00009cb0       ??_R3bad_alloc@std@@8      0000000180023cb0     LIBCMT:throw_bad_alloc.obj
 0002:00009cc8       ??_R2bad_alloc@std@@8      0000000180023cc8     LIBCMT:throw_bad_alloc.obj
 0002:00009ce0       ??_R1A@?0A@EA@bad_alloc@std@@8 0000000180023ce0     LIBCMT:throw_bad_alloc.obj
 0002:00009d08       ??_R4bad_array_new_length@std@@6B@ 0000000180023d08     LIBCMT:throw_bad_alloc.obj
 0002:00009d30       ??_R3bad_array_new_length@std@@8 0000000180023d30     LIBCMT:throw_bad_alloc.obj
 0002:00009d48       ??_R2bad_array_new_length@std@@8 0000000180023d48     LIBCMT:throw_bad_alloc.obj
 0002:00009d68       ??_R1A@?0A@EA@bad_array_new_length@std@@8 0000000180023d68     LIBCMT:throw_bad_alloc.obj
 0002:00009d90       ??_R4type_info@@6B@        0000000180023d90     LIBCMT:std_type_info_static.obj
 0002:00009db8       ??_R3type_info@@8          0000000180023db8     LIBCMT:std_type_info_static.obj
 0002:00009dd0       ??_R2type_info@@8          0000000180023dd0     LIBCMT:std_type_info_static.obj
 0002:00009de0       ??_R1A@?0A@EA@type_info@@8 0000000180023de0     LIBCMT:std_type_info_static.obj
 0002:00009e08       ??_R4logic_error@std@@6B@  0000000180023e08     libcpmt:xthrow.obj
 0002:00009e30       ??_R3logic_error@std@@8    0000000180023e30     libcpmt:xthrow.obj
 0002:00009e48       ??_R2logic_error@std@@8    0000000180023e48     libcpmt:xthrow.obj
 0002:00009e60       ??_R1A@?0A@EA@logic_error@std@@8 0000000180023e60     libcpmt:xthrow.obj
 0002:00009e88       ??_R4length_error@std@@6B@ 0000000180023e88     libcpmt:xthrow.obj
 0002:00009eb0       ??_R3length_error@std@@8   0000000180023eb0     libcpmt:xthrow.obj
 0002:00009ec8       ??_R2length_error@std@@8   0000000180023ec8     libcpmt:xthrow.obj
 0002:00009ee8       ??_R1A@?0A@EA@length_error@std@@8 0000000180023ee8     libcpmt:xthrow.obj
 0002:0000a2f0       __rtc_iaa                  00000001800242f0     LIBCMT:initsect.obj
 0002:0000a2f8       __rtc_izz                  00000001800242f8     LIBCMT:initsect.obj
 0002:0000a300       __rtc_taa                  0000000180024300     LIBCMT:initsect.obj
 0002:0000a308       __rtc_tzz                  0000000180024308     LIBCMT:initsect.obj
 0002:0000b680       _TI2?AVbad_alloc@std@@     0000000180025680     LIBCMT:throw_bad_alloc.obj
 0002:0000b6a0       _CTA2?AVbad_alloc@std@@    00000001800256a0     LIBCMT:throw_bad_alloc.obj
 0002:0000b6b8       _CT??_R0?AVbad_alloc@std@@@8??0bad_alloc@std@@QEAA@AEBV01@@Z24 00000001800256b8     LIBCMT:throw_bad_alloc.obj
 0002:0000b6e0       _CT??_R0?AVexception@std@@@8??0exception@std@@QEAA@AEBV01@@Z24 00000001800256e0     LIBCMT:throw_bad_alloc.obj
 0002:0000b708       _TI3?AVbad_array_new_length@std@@ 0000000180025708     LIBCMT:throw_bad_alloc.obj
 0002:0000b728       _CTA3?AVbad_array_new_length@std@@ 0000000180025728     LIBCMT:throw_bad_alloc.obj
 0002:0000b748       _CT??_R0?AVbad_array_new_length@std@@@8??0bad_array_new_length@std@@QEAA@AEBV01@@Z24 0000000180025748     LIBCMT:throw_bad_alloc.obj
 0002:0000b770       _CT??_R0?AVlogic_error@std@@@8??0logic_error@std@@QEAA@AEBV01@@Z24 0000000180025770     libcpmt:xthrow.obj
 0002:0000b798       _TI3?AVlength_error@std@@  0000000180025798     libcpmt:xthrow.obj
 0002:0000b7b8       _CTA3?AVlength_error@std@@ 00000001800257b8     libcpmt:xthrow.obj
 0002:0000b7d8       _CT??_R0?AVlength_error@std@@@8??0length_error@std@@QEAA@AEBV01@@Z24 00000001800257d8     libcpmt:xthrow.obj
 0002:0000b7fc       __DELAY_IMPORT_DESCRIPTOR_node_exe 00000001800257fc     node:node.exe
 0002:0000b81c       __NULL_DELAY_IMPORT_DESCRIPTOR 000000018002581c     node:node.exe
 0002:0000b998       \177node_NULL_THUNK_DATA_DLN 0000000180025998     node:node.exe
 0002:0000c5e0       \177node_NULL_THUNK_DATA_DLB 00000001800265e0     node:node.exe
 0002:0000c798       __IMPORT_DESCRIPTOR_KERNEL32 0000000180026798     kernel32:KERNEL32.dll
 0002:0000c7ac       __NULL_IMPORT_DESCRIPTOR   00000001800267ac     kernel32:KERNEL32.dll
 0003:00000000       __security_cookie_complement 0000000180027000     LIBCMT:gs_cookie.obj
 0003:00000008       __security_cookie          0000000180027008     LIBCMT:gs_cookie.obj
 0003:00000010       __scrt_native_dllmain_reason 0000000180027010     LIBCMT:utility.obj
 0003:00000018       __isa_available            0000000180027018     LIBCMT:cpu_disp.obj
 0003:0000001c       __isa_enabled              000000018002701c     LIBCMT:cpu_disp.obj
 0003:00000020       __memcpy_nt_iters          0000000180027020     LIBCMT:cpu_disp.obj
 0003:00000040       __abort_behavior           0000000180027040     libucrt:abort.obj
 0003:00000060       _iob                       0000000180027060     libucrt:_file.obj
 0003:00000170       __acrt_initial_locale_data 0000000180027170     libucrt:nlsdata.obj
 0003:000002c8       __acrt_initial_locale_pointers 00000001800272c8     libucrt:nlsdata.obj
 0003:000002d8       __acrt_wide_c_locale_string 00000001800272d8     libucrt:nlsdata.obj
 0003:000002e0       __badioinfo                00000001800272e0     libucrt:ioinit.obj
 0003:00000320       _pwctype                   0000000180027320     libucrt:ctype.obj
 0003:00000330       __acrt_initial_multibyte_data 0000000180027330     libucrt:mbctype.obj
 0003:00000870       __globallocalestatus       0000000180027870     libucrt:glstatus.obj
 0003:00000880       __acrt_lconv_c             0000000180027880     libucrt:localeconv.obj
 0003:00000918       __acrt_lconv_static_decimal 0000000180027918     libucrt:localeconv.obj
 0003:0000091c       __acrt_lconv_static_W_decimal 000000018002791c     libucrt:localeconv.obj
 0003:00000940       _fltused                   0000000180027940     LIBCMT:fltused.obj
 0003:00000990       ??_R0?AVbad_alloc@std@@@8  0000000180027990     LIBCMT:throw_bad_alloc.obj
 0003:000009b8       ??_R0?AVexception@std@@@8  00000001800279b8     LIBCMT:throw_bad_alloc.obj
 0003:000009e0       ??_R0?AVbad_array_new_length@std@@@8 00000001800279e0     LIBCMT:throw_bad_alloc.obj
 0003:00000a10       ??_R0?AVtype_info@@@8      0000000180027a10     LIBCMT:std_type_info_static.obj
 0003:00000a30       ??_R0?AVlogic_error@std@@@8 0000000180027a30     libcpmt:xthrow.obj
 0003:00000a58       ??_R0?AVlength_error@std@@@8 0000000180027a58     libcpmt:xthrow.obj
 0003:00000a80       __imp_uv_queue_work        0000000180027a80     node:node.exe
 0003:00000a88       __imp_?Global@Context@v8@@QEAA?AV?$Local@VObject@v8@@@2@XZ 0000000180027a88     node:node.exe
 0003:00000a90       __imp_?Value@External@v8@@QEBAPEAXXZ 0000000180027a90     node:node.exe
 0003:00000a98       __imp_?New@External@v8@@SA?AV?$Local@VExternal@v8@@@2@PEAVIsolate@2@PEAX@Z 0000000180027a98     node:node.exe
 0003:00000aa0       __imp_?NewFromUnsigned@Integer@v8@@SA?AV?$Local@VInteger@v8@@@2@PEAVIsolate@2@I@Z 0000000180027aa0     node:node.exe
 0003:00000aa8       __imp_?ThrowException@Isolate@v8@@QEAA?AV?$Local@VValue@v8@@@2@V32@@Z 0000000180027aa8     node:node.exe
 0003:00000ab0       __imp_?GetCurrentContext@Isolate@v8@@QEAA?AV?$Local@VContext@v8@@@2@XZ 0000000180027ab0     node:node.exe
 0003:00000ab8       __imp_?GetCurrent@Isolate@v8@@SAPEAV12@XZ 0000000180027ab8     node:node.exe
 0003:00000ac0       __imp_?CreateHandle@HandleScope@v8@@KAPEAPEAVObject@internal@2@PEAVIsolate@42@PEAV342@@Z 0000000180027ac0     node:node.exe
 0003:00000ac8       __imp_?CreateHandle@HandleScope@v8@@CAPEAPEAVObject@internal@2@PEAVHeapObject@42@PEAV342@@Z 0000000180027ac8     node:node.exe
 0003:00000ad0       __imp_??1HandleScope@v8@@QEAA@XZ 0000000180027ad0     node:node.exe
 0003:00000ad8       __imp_??0HandleScope@v8@@QEAA@PEAVIsolate@1@@Z 0000000180027ad8     node:node.exe
 0003:00000ae0       __imp_?Error@Exception@v8@@SA?AV?$Local@VValue@v8@@@2@V?$Local@VString@v8@@@2@@Z 0000000180027ae0     node:node.exe
 0003:00000ae8       __imp_?TypeError@Exception@v8@@SA?AV?$Local@VValue@v8@@@2@V?$Local@VString@v8@@@2@@Z 0000000180027ae8     node:node.exe
 0003:00000af0       __imp_?GetFunction@FunctionTemplate@v8@@QEAA?AV?$MaybeLocal@VFunction@v8@@@2@V?$Local@VContext@v8@@@2@@Z 0000000180027af0     node:node.exe
 0003:00000af8       __imp_?New@FunctionTemplate@v8@@SA?AV?$Local@VFunctionTemplate@v8@@@2@PEAVIsolate@2@P6AXAEBV?$FunctionCallbackInfo@VValue@v8@@@2@@ZV?$Local@VValue@v8@@@2@V?$Local@VSignature@v8@@@2@HW4ConstructorBehavior@2@W4SideEffectType@2@@Z 0000000180027af8     node:node.exe
 0003:00000b00       __imp_?ToLocalEmpty@V8@v8@@CAXXZ 0000000180027b00     node:node.exe
 0003:00000b08       __imp_?DisposeGlobal@V8@v8@@CAXPEAPEAVObject@internal@2@@Z 0000000180027b08     node:node.exe
 0003:00000b10       __imp_?GlobalizeReference@V8@v8@@CAPEAPEAVObject@internal@2@PEAVIsolate@42@PEAPEAV342@@Z 0000000180027b10     node:node.exe
 0003:00000b18       __imp_?Int32Value@Value@v8@@QEBA?AV?$Maybe@H@2@V?$Local@VContext@v8@@@2@@Z 0000000180027b18     node:node.exe
 0003:00000b20       __imp_?ToUint32@Value@v8@@QEBA?AV?$MaybeLocal@VUint32@v8@@@2@V?$Local@VContext@v8@@@2@@Z 0000000180027b20     node:node.exe
 0003:00000b28       __imp_?ToString@Value@v8@@QEBA?AV?$MaybeLocal@VString@v8@@@2@V?$Local@VContext@v8@@@2@@Z 0000000180027b28     node:node.exe
 0003:00000b30       __imp_?Escape@EscapableHandleScope@v8@@AEAAPEAPEAVObject@internal@2@PEAPEAV342@@Z 0000000180027b30     node:node.exe
 0003:00000b38       __imp_??0EscapableHandleScope@v8@@QEAA@PEAVIsolate@1@@Z 0000000180027b38     node:node.exe
 0003:00000b40       __imp_?NewFromUtf8@String@v8@@SA?AV?$MaybeLocal@VString@v8@@@2@PEAVIsolate@2@PEBDW4NewStringType@2@H@Z 0000000180027b40     node:node.exe
 0003:00000b48       __imp_?WriteUtf8@String@v8@@QEBAHPEADHPEAHH@Z 0000000180027b48     node:node.exe
 0003:00000b50       __imp_?Length@String@v8@@QEBAHXZ 0000000180027b50     node:node.exe
 0003:00000b58       __imp_?SlowGetInternalField@Object@v8@@AEAA?AV?$Local@VValue@v8@@@2@H@Z 0000000180027b58     node:node.exe
 0003:00000b60       __imp_?New@Object@v8@@SA?AV?$Local@VObject@v8@@@2@PEAVIsolate@2@@Z 0000000180027b60     node:node.exe
 0003:00000b68       __imp_?SetInternalField@Object@v8@@QEAAXHV?$Local@VValue@v8@@@2@@Z 0000000180027b68     node:node.exe
 0003:00000b70       __imp_?Set@Object@v8@@QEAA?AV?$Maybe@_N@2@V?$Local@VContext@v8@@@2@V?$Local@VValue@v8@@@2@1@Z 0000000180027b70     node:node.exe
 0003:00000b78       __imp_?SetInternalFieldCount@ObjectTemplate@v8@@QEAAXH@Z 0000000180027b78     node:node.exe
 0003:00000b80       __imp_?NewInstance@ObjectTemplate@v8@@QEAA?AV?$MaybeLocal@VObject@v8@@@2@V?$Local@VContext@v8@@@2@@Z 0000000180027b80     node:node.exe
 0003:00000b88       __imp_?New@ObjectTemplate@v8@@SA?AV?$Local@VObjectTemplate@v8@@@2@PEAVIsolate@2@V?$Local@VFunctionTemplate@v8@@@2@@Z 0000000180027b88     node:node.exe
 0003:00000b90       __imp_?EmitAsyncDestroy@node@@YAXPEAVIsolate@v8@@Uasync_context@1@@Z 0000000180027b90     node:node.exe
 0003:00000b98       __imp_?Encode@node@@YA?AV?$Local@VValue@v8@@@v8@@PEAVIsolate@3@PEBD_KW4encoding@1@@Z 0000000180027b98     node:node.exe
 0003:00000ba0       __imp_node_module_register 0000000180027ba0     node:node.exe
 0003:00000ba8       __imp_?HasInstance@Buffer@node@@YA_NV?$Local@VValue@v8@@@v8@@@Z 0000000180027ba8     node:node.exe
 0003:00000bb0       __imp_?Data@Buffer@node@@YAPEADV?$Local@VObject@v8@@@v8@@@Z 0000000180027bb0     node:node.exe
 0003:00000bb8       __imp_?Length@Buffer@node@@YA_KV?$Local@VObject@v8@@@v8@@@Z 0000000180027bb8     node:node.exe
 0003:00000bc0       __imp_?MakeCallback@node@@YA?AV?$MaybeLocal@VValue@v8@@@v8@@PEAVIsolate@3@V?$Local@VObject@v8@@@3@V?$Local@VFunction@v8@@@3@HPEAV?$Local@VValue@v8@@@3@Uasync_context@1@@Z 0000000180027bc0     node:node.exe
 0003:00000bc8       __imp_?EmitAsyncInit@node@@YA?AUasync_context@1@PEAVIsolate@v8@@V?$Local@VObject@v8@@@4@V?$Local@VString@v8@@@4@N@Z 0000000180027bc8     node:node.exe
 0003:00000bd0       __imp_?GetCurrentEventLoop@node@@YAPEAUuv_loop_s@@PEAVIsolate@v8@@@Z 0000000180027bd0     node:node.exe
 0003:00000bd8       \177node_NULL_THUNK_DATA_DLA 0000000180027bd8     node:node.exe
 0003:00000be0       __hmod__node_exe           0000000180027be0     node:node.exe
 0003:00001160       ?__type_info_root_node@@3U__type_info_node@@A 0000000180028160     LIBCMT:tncleanup.obj
 0003:00001170       ?_OptionsStorage@?1??__local_stdio_scanf_options@@9@4_KA 0000000180028170     LIBCMT:default_local_stdio_options.obj
 0003:00001178       __scrt_current_native_startup_state 0000000180028178     LIBCMT:utility.obj
 0003:00001180       __scrt_native_startup_lock 0000000180028180     LIBCMT:utility.obj
 0003:000011c0       __scrt_debugger_hook_flag  00000001800281c0     LIBCMT:utility_desktop.obj
 0003:000011c4       __favor                    00000001800281c4     LIBCMT:cpu_disp.obj
 0003:000011c8       __pPurecall                00000001800281c8     libvcruntime:purevirt_data.obj
 0003:000011d0       ?__WinRTOutOfMemoryExceptionCallback@@3P6APEAXXZEA 00000001800281d0     libvcruntime:ehhelpers.obj
 0003:000011d8       ?pArgList@UnDecorator@@0PEAVReplicator@@EA 00000001800281d8     libvcruntime:undname.obj
 0003:000011e0       ?pZNameList@UnDecorator@@0PEAVReplicator@@EA 00000001800281e0     libvcruntime:undname.obj
 0003:000011e8       ?pTemplateArgList@UnDecorator@@0PEAVReplicator@@EA 00000001800281e8     libvcruntime:undname.obj
 0003:000011f0       ?gName@UnDecorator@@0PEBDEB 00000001800281f0     libvcruntime:undname.obj
 0003:000011f8       ?name@UnDecorator@@0PEBDEB 00000001800281f8     libvcruntime:undname.obj
 0003:00001200       ?disableFlags@UnDecorator@@0KA 0000000180028200     libvcruntime:undname.obj
 0003:00001204       ?fExplicitTemplateParams@UnDecorator@@0_NA 0000000180028204     libvcruntime:undname.obj
 0003:00001205       ?fGetTemplateArgumentList@UnDecorator@@0_NA 0000000180028205     libvcruntime:undname.obj
 0003:00001208       ?m_pGetParameter@UnDecorator@@0P6APEADJ@ZEA 0000000180028208     libvcruntime:undname.obj
 0003:00001210       ?m_CHPENameOffset@UnDecorator@@0KA 0000000180028210     libvcruntime:undname.obj
 0003:00001214       ?m_recursionLevel@UnDecorator@@0KA 0000000180028214     libvcruntime:undname.obj
 0003:00001360       ?c_exit_complete@?1???R<lambda_6e4b09c48022b2350581041d5f6b0c4c>@@QEBA@XZ@4_NA 0000000180028360     libucrt:exit.obj
 0003:00001478       _environ_table             0000000180028478     libucrt:environment_initialization.obj
 0003:00001480       _wenviron_table            0000000180028480     libucrt:environment_initialization.obj
 0003:00001488       __dcrt_initial_wide_environment 0000000180028488     libucrt:environment_initialization.obj
 0003:00001490       __dcrt_initial_narrow_environment 0000000180028490     libucrt:environment_initialization.obj
 0003:00001498       __acrt_atexit_table        0000000180028498     libucrt:onexit.obj
 0003:000014b0       __acrt_at_quick_exit_table 00000001800284b0     libucrt:onexit.obj
 0003:000014c8       _nstream                   00000001800284c8     libucrt:_file.obj
 0003:000014d0       __piob                     00000001800284d0     libucrt:_file.obj
 0003:000014d8       _cflush                    00000001800284d8     libucrt:_file.obj
 0003:000014e8       __acrt_stdout_buffer       00000001800284e8     libucrt:_sftbuf.obj
 0003:000014f0       __acrt_stderr_buffer       00000001800284f0     libucrt:_sftbuf.obj
 0003:000014f8       __acrt_locale_changed_data 00000001800284f8     libucrt:wsetlocale.obj
 0003:00001500       __acrt_current_locale_data 0000000180028500     libucrt:nlsdata.obj
 0003:00001510       __pioinfo                  0000000180028510     libucrt:ioinit.obj
 0003:00001910       _nhandle                   0000000180028910     libucrt:ioinit.obj
 0003:00001b80       __acrt_current_multibyte_data 0000000180028b80     libucrt:mbctype.obj
 0003:00001b88       _mbctype                   0000000180028b88     libucrt:mbctype.obj
 0003:00001b90       _mbcasemap                 0000000180028b90     libucrt:mbctype.obj
 0003:00001ba0       __argc                     0000000180028ba0     libucrt:argv_data.obj
 0003:00001ba8       __argv                     0000000180028ba8     libucrt:argv_data.obj
 0003:00001bb0       __wargv                    0000000180028bb0     libucrt:argv_data.obj
 0003:00001bb8       _acmdln                    0000000180028bb8     libucrt:argv_data.obj
 0003:00001bc0       _wcmdln                    0000000180028bc0     libucrt:argv_data.obj
 0003:00001bc8       _pgmptr                    0000000180028bc8     libucrt:argv_data.obj
 0003:00001d80       __acrt_heap                0000000180028d80     libucrt:heap_handle.obj
 0003:00001d94       __acrt_lconv_static_null   0000000180028d94     libucrt:localeconv.obj
 0003:00001d98       __acrt_lconv_static_W_null 0000000180028d98     libucrt:localeconv.obj
 0003:00001d9c       __fma3_is_available        0000000180028d9c     libucrt:fma3_available.obj
 0003:00001da0       __use_fma3_lib             0000000180028da0     libucrt:fma3_available.obj
 0003:00001da8       ?DloadKernel32@@3PEAUHINSTANCE__@@EA 0000000180028da8     DelayImp:delayhlp.obj
 0003:00001db0       ?DloadAcquireSRWLockExclusive@@3P6AXPEA_K@ZEA 0000000180028db0     DelayImp:delayhlp.obj
 0003:00001db8       ?DloadReleaseSRWLockExclusive@@3P6AXPEA_K@ZEA 0000000180028db8     DelayImp:delayhlp.obj
 0003:00001dc0       ?DloadSrwLock@@3_KA        0000000180028dc0     DelayImp:delayhlp.obj
 0003:00001dc8       ?DloadSectionLockCount@@3KA 0000000180028dc8     DelayImp:delayhlp.obj
 0003:00001dcc       ?DloadSectionOldProtection@@3KA 0000000180028dcc     DelayImp:delayhlp.obj
 0003:00001dd0       ?DloadSectionCommitPermanent@@3KA 0000000180028dd0     DelayImp:delayhlp.obj
 0003:00001dd8       ?_OptionsStorage@?1??__local_stdio_printf_options@@9@4_KA 0000000180028dd8     bcrypt.obj
 0003:00001de0       __scrt_ucrt_dll_is_in_use  0000000180028de0     <common>
 0003:00001de8       __dyn_tls_init_callback    0000000180028de8     <common>

 entry point at        0001:00004d28

 Static symbols

 0000:fffd3000       .debug$S                   0000000180000000     kernel32:KERNEL32.dll
 0000:fffd3000       .debug$S                   0000000180000000     node:node.exe
 0000:fffd3000       .debug$S                   0000000180000000     kernel32:KERNEL32.dll
 0000:fffd3000       .debug$S                   0000000180000000     kernel32:KERNEL32.dll
 0000:fffd3000       .debug$S                   0000000180000000     kernel32:KERNEL32.dll
 0000:fffd3000       .debug$S                   0000000180000000     node:node.exe
 0000:fffd3000       .debug$S                   0000000180000000     kernel32:KERNEL32.dll
 0000:fffd3000       .debug$S                   0000000180000000     node:node.exe
 0000:fffd3000       .debug$S                   0000000180000000     kernel32:KERNEL32.dll
 0000:fffd3000       .debug$S                   0000000180000000     node:node.exe
 0000:fffd3000       .debug$S                   0000000180000000     kernel32:KERNEL32.dll
 0000:fffd3000       .debug$S                   0000000180000000     node:node.exe
 0000:fffd3000       .debug$S                   0000000180000000     kernel32:KERNEL32.dll
 0000:fffd3000       .debug$S                   0000000180000000     node:node.exe
 0000:fffd3000       .debug$S                   0000000180000000     kernel32:KERNEL32.dll
 0000:fffd3000       .debug$S                   0000000180000000     node:node.exe
 0000:fffd3000       .debug$S                   0000000180000000     kernel32:KERNEL32.dll
 0000:fffd3000       .debug$S                   0000000180000000     node:node.exe
 0000:fffd3000       .debug$S                   0000000180000000     kernel32:KERNEL32.dll
 0000:fffd3000       .debug$S                   0000000180000000     node:node.exe
 0000:fffd3000       .debug$S                   0000000180000000     kernel32:KERNEL32.dll
 0000:fffd3000       .debug$S                   0000000180000000     node:node.exe
 0000:fffd3000       .debug$S                   0000000180000000     kernel32:KERNEL32.dll
 0000:fffd3000       .debug$S                   0000000180000000     node:node.exe
 0000:fffd3000       .debug$S                   0000000180000000     kernel32:KERNEL32.dll
 0000:fffd3000       .debug$S                   0000000180000000     node:node.exe
 0000:fffd3000       .debug$S                   0000000180000000     kernel32:KERNEL32.dll
 0000:fffd3000       .debug$S                   0000000180000000     node:node.exe
 0000:fffd3000       .debug$S                   0000000180000000     kernel32:KERNEL32.dll
 0000:fffd3000       .debug$S                   0000000180000000     node:node.exe
 0000:fffd3000       .debug$S                   0000000180000000     kernel32:KERNEL32.dll
 0000:fffd3000       .debug$S                   0000000180000000     node:node.exe
 0000:fffd3000       .debug$S                   0000000180000000     kernel32:KERNEL32.dll
 0000:fffd3000       .debug$S                   0000000180000000     node:node.exe
 0000:fffd3000       .debug$S                   0000000180000000     kernel32:KERNEL32.dll
 0000:fffd3000       .debug$S                   0000000180000000     node:node.exe
 0000:fffd3000       .debug$S                   0000000180000000     kernel32:KERNEL32.dll
 0000:fffd3000       .debug$S                   0000000180000000     node:node.exe
 0000:fffd3000       .debug$S                   0000000180000000     kernel32:KERNEL32.dll
 0000:fffd3000       .debug$S                   0000000180000000     node:node.exe
 0000:fffd3000       .debug$S                   0000000180000000     kernel32:KERNEL32.dll
 0000:fffd3000       .debug$S                   0000000180000000     node:node.exe
 0000:fffd3000       .debug$S                   0000000180000000     kernel32:KERNEL32.dll
 0000:fffd3000       .debug$S                   0000000180000000     node:node.exe
 0000:fffd3000       .debug$S                   0000000180000000     kernel32:KERNEL32.dll
 0000:fffd3000       .debug$S                   0000000180000000     node:node.exe
 0000:fffd3000       .debug$S                   0000000180000000     kernel32:KERNEL32.dll
 0000:fffd3000       .debug$S                   0000000180000000     node:node.exe
 0000:fffd3000       .debug$S                   0000000180000000     kernel32:KERNEL32.dll
 0000:fffd3000       .debug$S                   0000000180000000     node:node.exe
 0000:fffd3000       .debug$S                   0000000180000000     kernel32:KERNEL32.dll
 0000:fffd3000       .debug$S                   0000000180000000     node:node.exe
 0000:fffd3000       .debug$S                   0000000180000000     kernel32:KERNEL32.dll
 0000:fffd3000       .debug$S                   0000000180000000     node:node.exe
 0000:fffd3000       .debug$S                   0000000180000000     kernel32:KERNEL32.dll
 0000:fffd3000       .debug$S                   0000000180000000     node:node.exe
 0000:fffd3000       .debug$S                   0000000180000000     kernel32:KERNEL32.dll
 0000:fffd3000       .debug$S                   0000000180000000     node:node.exe
 0000:fffd3000       .debug$S                   0000000180000000     kernel32:KERNEL32.dll
 0000:fffd3000       .debug$S                   0000000180000000     node:node.exe
 0000:fffd3000       .debug$S                   0000000180000000     kernel32:KERNEL32.dll
 0000:fffd3000       .debug$S                   0000000180000000     node:node.exe
 0000:fffd3000       .debug$S                   0000000180000000     kernel32:KERNEL32.dll
 0000:fffd3000       .debug$S                   0000000180000000     node:node.exe
 0000:fffd3000       .debug$S                   0000000180000000     kernel32:KERNEL32.dll
 0000:fffd3000       .debug$S                   0000000180000000     node:node.exe
 0000:fffd3000       .debug$S                   0000000180000000     kernel32:KERNEL32.dll
 0000:fffd3000       .debug$S                   0000000180000000     node:node.exe
 0000:fffd3000       .debug$S                   0000000180000000     kernel32:KERNEL32.dll
 0000:fffd3000       .debug$S                   0000000180000000     node:node.exe
 0000:fffd3000       .debug$S                   0000000180000000     kernel32:KERNEL32.dll
 0000:fffd3000       .debug$S                   0000000180000000     node:node.exe
 0000:fffd3000       .debug$S                   0000000180000000     kernel32:KERNEL32.dll
 0000:fffd3000       .debug$S                   0000000180000000     node:node.exe
 0000:fffd3000       .debug$S                   0000000180000000     kernel32:KERNEL32.dll
 0000:fffd3000       .debug$S                   0000000180000000     node:node.exe
 0000:fffd3000       .debug$S                   0000000180000000     kernel32:KERNEL32.dll
 0000:fffd3000       .debug$S                   0000000180000000     node:node.exe
 0000:fffd3000       .debug$S                   0000000180000000     kernel32:KERNEL32.dll
 0000:fffd3000       .debug$S                   0000000180000000     node:node.exe
 0000:fffd3000       .debug$S                   0000000180000000     kernel32:KERNEL32.dll
 0000:fffd3000       .debug$S                   0000000180000000     node:node.exe
 0000:fffd3000       .debug$S                   0000000180000000     kernel32:KERNEL32.dll
 0000:fffd3000       .debug$S                   0000000180000000     node:node.exe
 0000:fffd3000       .debug$S                   0000000180000000     kernel32:KERNEL32.dll
 0000:fffd3000       .debug$S                   0000000180000000     node:node.exe
 0000:fffd3000       .debug$S                   0000000180000000     kernel32:KERNEL32.dll
 0000:fffd3000       .debug$S                   0000000180000000     node:node.exe
 0000:fffd3000       .debug$S                   0000000180000000     kernel32:KERNEL32.dll
 0000:fffd3000       .debug$S                   0000000180000000     node:node.exe
 0000:fffd3000       .debug$S                   0000000180000000     kernel32:KERNEL32.dll
 0000:fffd3000       .debug$S                   0000000180000000     node:node.exe
 0000:fffd3000       .debug$S                   0000000180000000     kernel32:KERNEL32.dll
 0000:fffd3000       .debug$S                   0000000180000000     node:node.exe
 0000:fffd3000       .debug$S                   0000000180000000     kernel32:KERNEL32.dll
 0000:fffd3000       .debug$S                   0000000180000000     node:node.exe
 0000:fffd3000       .debug$S                   0000000180000000     kernel32:KERNEL32.dll
 0000:fffd3000       .debug$S                   0000000180000000     node:node.exe
 0000:fffd3000       .debug$S                   0000000180000000     kernel32:KERNEL32.dll
 0000:fffd3000       .debug$S                   0000000180000000     node:node.exe
 0000:fffd3000       .debug$S                   0000000180000000     kernel32:KERNEL32.dll
 0000:fffd3000       .debug$S                   0000000180000000     node:node.exe
 0000:fffd3000       .debug$S                   0000000180000000     kernel32:KERNEL32.dll
 0000:fffd3000       .debug$S                   0000000180000000     node:node.exe
 0000:fffd3000       .debug$S                   0000000180000000     kernel32:KERNEL32.dll
 0000:fffd3000       .debug$S                   0000000180000000     node:node.exe
 0000:fffd3000       .debug$S                   0000000180000000     kernel32:KERNEL32.dll
 0000:fffd3000       .debug$S                   0000000180000000     kernel32:KERNEL32.dll
 0000:fffd3000       .debug$S                   0000000180000000     kernel32:KERNEL32.dll
 0000:fffd3000       .debug$S                   0000000180000000     kernel32:KERNEL32.dll
 0000:fffd3000       .debug$S                   0000000180000000     kernel32:KERNEL32.dll
 0000:fffd3000       .debug$S                   0000000180000000     kernel32:KERNEL32.dll
 0000:fffd3000       .debug$S                   0000000180000000     kernel32:KERNEL32.dll
 0000:fffd3000       .debug$S                   0000000180000000     kernel32:KERNEL32.dll
 0000:fffd3000       .debug$S                   0000000180000000     kernel32:KERNEL32.dll
 0000:fffd3000       .debug$S                   0000000180000000     kernel32:KERNEL32.dll
 0000:fffd3000       .debug$S                   0000000180000000     kernel32:KERNEL32.dll
 0000:fffd3000       .debug$S                   0000000180000000     kernel32:KERNEL32.dll
 0000:fffd3000       .debug$S                   0000000180000000     kernel32:KERNEL32.dll
 0000:fffd3000       .debug$S                   0000000180000000     kernel32:KERNEL32.dll
 0000:fffd3000       .debug$S                   0000000180000000     kernel32:KERNEL32.dll
 0000:fffd3000       .debug$S                   0000000180000000     kernel32:KERNEL32.dll
 0000:fffd3000       .debug$S                   0000000180000000     kernel32:KERNEL32.dll
 0000:fffd3000       .debug$S                   0000000180000000     kernel32:KERNEL32.dll
 0000:fffd3000       .debug$S                   0000000180000000     kernel32:KERNEL32.dll
 0000:fffd3000       .debug$S                   0000000180000000     kernel32:KERNEL32.dll
 0000:fffd3000       .debug$S                   0000000180000000     kernel32:KERNEL32.dll
 0000:fffd3000       .debug$S                   0000000180000000     kernel32:KERNEL32.dll
 0000:fffd3000       .debug$S                   0000000180000000     kernel32:KERNEL32.dll
 0000:fffd3000       .debug$S                   0000000180000000     kernel32:KERNEL32.dll
 0000:fffd3000       .debug$S                   0000000180000000     kernel32:KERNEL32.dll
 0000:fffd3000       .debug$S                   0000000180000000     kernel32:KERNEL32.dll
 0000:fffd3000       .debug$S                   0000000180000000     kernel32:KERNEL32.dll
 0000:fffd3000       .debug$S                   0000000180000000     kernel32:KERNEL32.dll
 0000:fffd3000       .debug$S                   0000000180000000     kernel32:KERNEL32.dll
 0000:fffd3000       .debug$S                   0000000180000000     kernel32:KERNEL32.dll
 0000:fffd3000       .debug$S                   0000000180000000     kernel32:KERNEL32.dll
 0000:fffd3000       .debug$S                   0000000180000000     kernel32:KERNEL32.dll
 0000:fffd3000       .debug$S                   0000000180000000     kernel32:KERNEL32.dll
 0000:fffd3000       .debug$S                   0000000180000000     kernel32:KERNEL32.dll
 0000:fffd3000       .debug$S                   0000000180000000     kernel32:KERNEL32.dll
 0000:fffd3000       .debug$S                   0000000180000000     kernel32:KERNEL32.dll
 0000:fffd3000       .debug$S                   0000000180000000     kernel32:KERNEL32.dll
 0000:fffd3000       .debug$S                   0000000180000000     bcrypt_lib.exp
 0001:00001220       ?encode_base64@@YAXPEAE0G@Z 0000000180002220 f   bcrypt.obj
 0001:00001310       ?FunctionCallbackWrapper@imp@Nan@@YAXAEBV?$FunctionCallbackInfo@VValue@v8@@@v8@@@Z 0000000180002310 f   bcrypt_node.obj
 0001:00001f50       ?ValidateSalt@?A0x6ae9514c@@YA_NPEBD@Z 0000000180002f50 f   bcrypt_node.obj
 0001:00001fe0       ?ToCharVersion@?A0x6ae9514c@@YADV?$Local@VString@v8@@@v8@@@Z 0000000180002fe0 f   bcrypt_node.obj
 0001:000020c0       ?Execute@SaltAsyncWorker@?A0x6ae9514c@@UEAAXXZ 00000001800030c0 f   bcrypt_node.obj
 0001:00002260       ?HandleOKCallback@SaltAsyncWorker@?A0x6ae9514c@@UEAAXXZ 0000000180003260 f   bcrypt_node.obj
 0001:000023d0       ??_GSaltAsyncWorker@?A0x6ae9514c@@UEAAPEAXI@Z 00000001800033d0 f   bcrypt_node.obj
 0001:000024d0       ?GenerateSalt@?A0x6ae9514c@@YAXAEBV?$FunctionCallbackInfo@VValue@v8@@@Nan@@@Z 00000001800034d0 f   bcrypt_node.obj
 0001:00002870       ?GenerateSaltSync@?A0x6ae9514c@@YAXAEBV?$FunctionCallbackInfo@VValue@v8@@@Nan@@@Z 0000000180003870 f   bcrypt_node.obj
 0001:00002b90       ??1EncryptAsyncWorker@?A0x6ae9514c@@UEAA@XZ 0000000180003b90 f   bcrypt_node.obj
 0001:00002d30       ?Execute@EncryptAsyncWorker@?A0x6ae9514c@@UEAAXXZ 0000000180003d30 f   bcrypt_node.obj
 0001:00002ec0       ?HandleOKCallback@EncryptAsyncWorker@?A0x6ae9514c@@UEAAXXZ 0000000180003ec0 f   bcrypt_node.obj
 0001:000030c0       ??_GEncryptAsyncWorker@?A0x6ae9514c@@UEAAPEAXI@Z 00000001800040c0 f   bcrypt_node.obj
 0001:00003100       ?Encrypt@?A0x6ae9514c@@YAXAEBV?$FunctionCallbackInfo@VValue@v8@@@Nan@@@Z 0000000180004100 f   bcrypt_node.obj
 0001:000034c0       ?EncryptSync@?A0x6ae9514c@@YAXAEBV?$FunctionCallbackInfo@VValue@v8@@@Nan@@@Z 00000001800044c0 f   bcrypt_node.obj
 0001:00003760       ?Execute@CompareAsyncWorker@?A0x6ae9514c@@UEAAXXZ 0000000180004760 f   bcrypt_node.obj
 0001:00003880       ?HandleOKCallback@CompareAsyncWorker@?A0x6ae9514c@@UEAAXXZ 0000000180004880 f   bcrypt_node.obj
 0001:000039d0       ??_GCompareAsyncWorker@?A0x6ae9514c@@UEAAPEAXI@Z 00000001800049d0 f   bcrypt_node.obj
 0001:00003ad0       ?Compare@?A0x6ae9514c@@YAXAEBV?$FunctionCallbackInfo@VValue@v8@@@Nan@@@Z 0000000180004ad0 f   bcrypt_node.obj
 0001:00003e60       ?CompareSync@?A0x6ae9514c@@YAXAEBV?$FunctionCallbackInfo@VValue@v8@@@Nan@@@Z 0000000180004e60 f   bcrypt_node.obj
 0001:00004140       ?GetRounds@?A0x6ae9514c@@YAXAEBV?$FunctionCallbackInfo@VValue@v8@@@Nan@@@Z 0000000180005140 f   bcrypt_node.obj
 0001:00004450       _register_bcrypt_lib       0000000180005450 f   bcrypt_node.obj
 0001:000046b0       ?load_exe_hook@@YAP6A_JXZIPEAUDelayLoadInfo@@@Z 00000001800056b0 f   win_delay_load_hook.obj
 0001:00004980       $$000000                   0000000180005980     LIBCMT:amdsecgs.obj
 0001:000049f8       ?dllmain_crt_dispatch@@YAHQEAUHINSTANCE__@@KQEAX@Z 00000001800059f8 f   LIBCMT:dll_dllmain.obj
 0001:00004a48       ?dllmain_crt_process_attach@@YAHQEAUHINSTANCE__@@QEAX@Z 0000000180005a48 f   LIBCMT:dll_dllmain.obj
 0001:00004b64       ?dllmain_crt_process_detach@@YAH_N@Z 0000000180005b64 f   LIBCMT:dll_dllmain.obj
 0001:00004bf4       ?dllmain_dispatch@@YAHQEAUHINSTANCE__@@KQEAX@Z 0000000180005bf4 f   LIBCMT:dll_dllmain.obj
 0001:00004f20       capture_current_context    0000000180005f20 f   LIBCMT:gs_report.obj
 0001:00004f90       capture_previous_context   0000000180005f90 f   LIBCMT:gs_report.obj
 0001:00005f10       $$000000                   0000000180006f10     libvcruntime:memset.obj
 0001:0000600c       MsetTab                    000000018000700c     libvcruntime:memset.obj
 0001:000060e0       $$000000                   00000001800070e0     libvcruntime:notify.obj
 0001:00006408       ?try_get_function@@YAPEAXW4function_id@?A0x14c33c87@@QEBDQEBW4module_id@2@2@Z 0000000180007408 f   libvcruntime:winapi_downlevel.obj
 0001:000067e0       $$000000                   00000001800077e0     libvcruntime:memcpy.obj
 0001:00006897       MoveSmall                  0000000180007897     libvcruntime:memcpy.obj
 0001:00006c40       $$000000                   0000000180007c40     libvcruntime:handlers.obj
 0001:00006ce8       ??$?RV<lambda_0d412022a4b28cc8a401ea49574e8ae6>@@AEAV<lambda_a775ed57af18ba8e4d5dc780aa9068fe>@@V<lambda_975a71a6baa488a08f4e15f6b0339b9e>@@@?$__crt_seh_guarded_call@H@@QEAAH$$QEAV<lambda_0d412022a4b28cc8a401ea49574e8ae6>@@AEAV<lambda_a775ed57af18ba8e4d5dc780aa9068fe>@@$$QEAV<lambda_975a71a6baa488a08f4e15f6b0339b9e>@@@Z 0000000180007ce8 f   libucrt:output.obj
 0001:00006d28       ??$common_vsprintf@Vstandard_base@__crt_stdio_output@@D@@YAH_KQEAD0QEBDQEAU__crt_locale_pointers@@1@Z 0000000180007d28 f   libucrt:output.obj
 0001:00006ef4       ??$common_vsprintf@Vstandard_base@__crt_stdio_output@@_W@@YAH_KQEA_W0QEB_WQEAU__crt_locale_pointers@@QEAD@Z 0000000180007ef4 f   libucrt:output.obj
 0001:00007698       ??R<lambda_a775ed57af18ba8e4d5dc780aa9068fe>@@QEBAHXZ 0000000180008698 f   libucrt:output.obj
 0001:0000aae8       ??$common_assert_to_message_box@_W@@YAXQEB_W0IQEAX@Z 000000018000bae8 f   libucrt:assert.obj
 0001:0000abac       ??$common_assert_to_message_box_build_string@_W@@YAXQEA_W_KQEB_W2IQEAX@Z 000000018000bbac f   libucrt:assert.obj
 0001:0000b36c       ??$common_assert_to_stderr@_W@@YAXQEB_W0I@Z 000000018000c36c f   libucrt:assert.obj
 0001:0000b4dc       ?get_assert_format@@YAPEB_W_W@Z 000000018000c4dc f   libucrt:assert.obj
 0001:0000bca0       ??$?RV<lambda_d80eeec6fff315bfe5c115232f3240e3>@@AEAV<lambda_6e4b09c48022b2350581041d5f6b0c4c>@@V<lambda_2358e3775559c9db80273638284d5e45>@@@?$__crt_seh_guarded_call@X@@QEAAX$$QEAV<lambda_d80eeec6fff315bfe5c115232f3240e3>@@AEAV<lambda_6e4b09c48022b2350581041d5f6b0c4c>@@$$QEAV<lambda_2358e3775559c9db80273638284d5e45>@@@Z 000000018000cca0 f   libucrt:exit.obj
 0001:0000bcd8       ??R<lambda_6e4b09c48022b2350581041d5f6b0c4c>@@QEBA@XZ 000000018000ccd8 f   libucrt:exit.obj
 0001:0000bdb0       ?atexit_exception_filter@@YAHK@Z 000000018000cdb0 f   libucrt:exit.obj
 0001:0000bdbc       ?common_exit@@YAXHW4_crt_exit_cleanup_mode@@W4_crt_exit_return_mode@@@Z 000000018000cdbc f   libucrt:exit.obj
 0001:0000be78       ?exit_or_terminate_process@@YAXI@Z 000000018000ce78 f   libucrt:exit.obj
 0001:0000bec4       ?try_cor_exit_process@@YAXI@Z 000000018000cec4 f   libucrt:exit.obj
 0001:0000bf4c       ??$parse_command_line@D@@YAXPEADPEAPEAD0PEA_K2@Z 000000018000cf4c f   libucrt:argv_parsing.obj
 0001:0000c2f0       ??$common_initialize_environment_nolock@D@@YAHXZ 000000018000d2f0 f   libucrt:environment_initialization.obj
 0001:0000c35c       ??$create_environment@D@@YAQEAPEADQEAD@Z 000000018000d35c f   libucrt:environment_initialization.obj
 0001:0000c468       ??$free_environment@D@@YAXQEAPEAD@Z 000000018000d468 f   libucrt:environment_initialization.obj
 0001:0000c468       ??$free_environment@_W@@YAXQEAPEA_W@Z 000000018000d468 f   libucrt:environment_initialization.obj
 0001:0000c4ac       ??$uninitialize_environment_internal@D@@YAXAEAPEAPEAD@Z 000000018000d4ac f   libucrt:environment_initialization.obj
 0001:0000c4c8       ??$uninitialize_environment_internal@_W@@YAXAEAPEAPEA_W@Z 000000018000d4c8 f   libucrt:environment_initialization.obj
 0001:0000c524       ??$?RV<lambda_7777bce6b2f8c936911f934f8298dc43>@@AEAV<lambda_f03950bc5685219e0bcd2087efbe011e>@@V<lambda_3883c3dff614d5e0c5f61bb1ac94921c>@@@?$__crt_seh_guarded_call@H@@QEAAH$$QEAV<lambda_7777bce6b2f8c936911f934f8298dc43>@@AEAV<lambda_f03950bc5685219e0bcd2087efbe011e>@@$$QEAV<lambda_3883c3dff614d5e0c5f61bb1ac94921c>@@@Z 000000018000d524 f   libucrt:onexit.obj
 0001:0000c560       ??R<lambda_f03950bc5685219e0bcd2087efbe011e>@@QEBAHXZ 000000018000d560 f   libucrt:onexit.obj
 0001:0000c728       initialize_global_variables 000000018000d728 f   libucrt:initialization.obj
 0001:0000c73c       initialize_c               000000018000d73c f   libucrt:initialization.obj
 0001:0000c760       uninitialize_c             000000018000d760 f   libucrt:initialization.obj
 0001:0000c760       initialize_environment     000000018000d760 f   libucrt:initialization.obj
 0001:0000c760       uninitialize_global_state_isolation 000000018000d760 f   libucrt:initialization.obj
 0001:0000c760       initialize_global_state_isolation 000000018000d760 f   libucrt:initialization.obj
 0001:0000c760       report_memory_leaks        000000018000d760 f   libucrt:initialization.obj
 0001:0000c764       uninitialize_environment   000000018000d764 f   libucrt:initialization.obj
 0001:0000c774       initialize_pointers        000000018000d774 f   libucrt:initialization.obj
 0001:0000c7c8       uninitialize_vcruntime     000000018000d7c8 f   libucrt:initialization.obj
 0001:0000c7d0       uninitialize_allocated_memory 000000018000d7d0 f   libucrt:initialization.obj
 0001:0000c810       uninitialize_allocated_io_buffers 000000018000d810 f   libucrt:initialization.obj
 0001:0000c9d0       $$000000                   000000018000d9d0     libucrt:strncmp.obj
 0001:0000cb08       ?internal_isupper_l@@YA_NHQEAU__crt_locale_pointers@@@Z 000000018000db08 f   libucrt:tolower_toupper.obj
 0001:0000d47c       ??$?RV<lambda_0ae27a3a962d80f24befdcbee591983d>@@AEAV<lambda_8d0ee55de4b1038c4002e0adecdf1839>@@V<lambda_dc504788e8f1664fe9b84e20bfb512f2>@@@?$__crt_seh_guarded_call@X@@QEAAX$$QEAV<lambda_0ae27a3a962d80f24befdcbee591983d>@@AEAV<lambda_8d0ee55de4b1038c4002e0adecdf1839>@@$$QEAV<lambda_dc504788e8f1664fe9b84e20bfb512f2>@@@Z 000000018000e47c f   libucrt:per_thread_data.obj
 0001:0000d4bc       ??$?RV<lambda_2d41944a1d46af3157314b8a01080d33>@@AEAV<lambda_8f455de75cd7d7f24b4096f044d8b9e6>@@V<lambda_aa500f224e6afead328df44964fe2772>@@@?$__crt_seh_guarded_call@X@@QEAAX$$QEAV<lambda_2d41944a1d46af3157314b8a01080d33>@@AEAV<lambda_8f455de75cd7d7f24b4096f044d8b9e6>@@$$QEAV<lambda_aa500f224e6afead328df44964fe2772>@@@Z 000000018000e4bc f   libucrt:per_thread_data.obj
 0001:0000d4fc       ??$?RV<lambda_aa87e3671a710a21b5dc78c0bdf72e11>@@AEAV<lambda_92619d2358a28f41a33ba319515a20b9>@@V<lambda_6992ecaafeb10aed2b74cb1fae11a551>@@@?$__crt_seh_guarded_call@X@@QEAAX$$QEAV<lambda_aa87e3671a710a21b5dc78c0bdf72e11>@@AEAV<lambda_92619d2358a28f41a33ba319515a20b9>@@$$QEAV<lambda_6992ecaafeb10aed2b74cb1fae11a551>@@@Z 000000018000e4fc f   libucrt:per_thread_data.obj
 0001:0000d544       ??$?RV<lambda_f2e299630e499de9f9a165e60fcd3db5>@@AEAV<lambda_2ae9d31cdba2644fcbeaf08da7c24588>@@V<lambda_40d01ff24d0e7b3814fdbdcee8eab3c7>@@@?$__crt_seh_guarded_call@X@@QEAAX$$QEAV<lambda_f2e299630e499de9f9a165e60fcd3db5>@@AEAV<lambda_2ae9d31cdba2644fcbeaf08da7c24588>@@$$QEAV<lambda_40d01ff24d0e7b3814fdbdcee8eab3c7>@@@Z 000000018000e544 f   libucrt:per_thread_data.obj
 0001:0000d5a4       ?construct_ptd_array@@YAXQEAU__acrt_ptd@@@Z 000000018000e5a4 f   libucrt:per_thread_data.obj
 0001:0000d674       ?destroy_fls@@YAXPEAX@Z    000000018000e674 f   libucrt:per_thread_data.obj
 0001:0000d694       ?destroy_ptd_array@@YAXQEAU__acrt_ptd@@@Z 000000018000e694 f   libucrt:per_thread_data.obj
 0001:0000d78c       ?replace_current_thread_locale_nolock@@YAXQEAU__acrt_ptd@@QEAU__crt_locale_data@@@Z 000000018000e78c f   libucrt:per_thread_data.obj
 0001:0000db44       ?fp_format_a@@YAHQEBNPEAD_KQEAD2H_NIQEAU__crt_locale_pointers@@@Z 000000018000eb44 f   libucrt:cvt.obj
 0001:0000de98       ?fp_format_e@@YAHQEBNQEAD_K12H_NIQEAU__crt_locale_pointers@@@Z 000000018000ee98 f   libucrt:cvt.obj
 0001:0000df74       ?fp_format_e_internal@@YAHQEAD_KH_NIQEAU_strflt@@2QEAU__crt_locale_pointers@@@Z 000000018000ef74 f   libucrt:cvt.obj
 0001:0000e148       ?fp_format_f_internal@@YAHQEAD_KHQEAU_strflt@@_NQEAU__crt_locale_pointers@@@Z 000000018000f148 f   libucrt:cvt.obj
 0001:0000e290       ?fp_format_g@@YAHQEBNQEAD_K12H_NIQEAU__crt_locale_pointers@@@Z 000000018000f290 f   libucrt:cvt.obj
 0001:0000e3c4       ?fp_format_nan_or_infinity@@YAHW4__acrt_fp_class@@_NPEAD_K1@Z 000000018000f3c4 f   libucrt:cvt.obj
 0001:0000ec0c       ??$?RV<lambda_410d79af7f07d98d83a3f525b3859a53>@@AEAV<lambda_3e16ef9562a7dcce91392c22ab16ea36>@@V<lambda_38119f0e861e05405d8a144b9b982f0a>@@@?$__crt_seh_guarded_call@X@@QEAAX$$QEAV<lambda_410d79af7f07d98d83a3f525b3859a53>@@AEAV<lambda_3e16ef9562a7dcce91392c22ab16ea36>@@$$QEAV<lambda_38119f0e861e05405d8a144b9b982f0a>@@@Z 000000018000fc0c f   libucrt:wsetlocale.obj
 0001:0000ecb8       ?initialize_inherited_file_handles_nolock@@YAXXZ 000000018000fcb8 f   libucrt:ioinit.obj
 0001:0000eda4       ?initialize_stdio_handles_nolock@@YAXXZ 000000018000fda4 f   libucrt:ioinit.obj
 0001:0000f0d4       ??$common_xtox@K_W@@YAHKQEA_W_KI_N@Z 00000001800100d4 f   libucrt:xtoa.obj
 0001:0000f17c       ??$common_xtox_s@K_W@@YAHKQEA_W_KI_N@Z 000000018001017c f   libucrt:xtoa.obj
 0001:0000f4d4       ??$?RV<lambda_842d9ff0dc9ef11c61343bbaebe7f885>@@AEAV<lambda_c5860995281e5c4ce005b3de8f5874ee>@@V<lambda_d90129c13df834fdcbf8d2b88dafcf2d>@@@?$__crt_seh_guarded_call@X@@QEAAX$$QEAV<lambda_842d9ff0dc9ef11c61343bbaebe7f885>@@AEAV<lambda_c5860995281e5c4ce005b3de8f5874ee>@@$$QEAV<lambda_d90129c13df834fdcbf8d2b88dafcf2d>@@@Z 00000001800104d4 f   libucrt:fflush.obj
 0001:0000f570       ??$?RV<lambda_886d6c58226a84441f68b9f2b8217b83>@@AEAV<lambda_ab61a845afdef5b7c387490eaf3616ee>@@V<lambda_f7f22ab5edc0698d5f6905b0d3f44752>@@@?$__crt_seh_guarded_call@X@@QEAAX$$QEAV<lambda_886d6c58226a84441f68b9f2b8217b83>@@AEAV<lambda_ab61a845afdef5b7c387490eaf3616ee>@@$$QEAV<lambda_f7f22ab5edc0698d5f6905b0d3f44752>@@@Z 0000000180010570 f   libucrt:fflush.obj
 0001:0000f658       ??$?RV<lambda_c376a267cfb53b6959b3b692ec76b120>@@AEAV<lambda_9a32fed5bf61b6b509b2d3f6003082a1>@@V<lambda_572fbb9fa0ab338edf41edfd4b5fcc8d>@@@?$__crt_seh_guarded_call@H@@QEAAH$$QEAV<lambda_c376a267cfb53b6959b3b692ec76b120>@@AEAV<lambda_9a32fed5bf61b6b509b2d3f6003082a1>@@$$QEAV<lambda_572fbb9fa0ab338edf41edfd4b5fcc8d>@@@Z 0000000180010658 f   libucrt:fflush.obj
 0001:0000f698       ?common_flush_all@@YAH_N@Z 0000000180010698 f   libucrt:fflush.obj
 0001:0000f830       ??$?RV<lambda_84ec643ea9557e2f7dc01bb0e9624395>@@AEAV<lambda_ca71763b3c0644891230e4f79ea54fa6>@@V<lambda_439a761618c59b0600e24586724d733b>@@@?$__crt_seh_guarded_call@H@@QEAAH$$QEAV<lambda_84ec643ea9557e2f7dc01bb0e9624395>@@AEAV<lambda_ca71763b3c0644891230e4f79ea54fa6>@@$$QEAV<lambda_439a761618c59b0600e24586724d733b>@@@Z 0000000180010830 f   libucrt:setvbuf.obj
 0001:0000f870       ??R<lambda_ca71763b3c0644891230e4f79ea54fa6>@@QEBAHXZ 0000000180010870 f   libucrt:setvbuf.obj
 0001:0000f9fc       ??$?RV<lambda_450d765d439847d4c735a33c368b5fc0>@@AEAV<lambda_44731a7d0e6d81c3e6aa82d741081786>@@V<lambda_601a2a7da3b7a96e9554ac7215c4b07c>@@@?$__crt_seh_guarded_call@P6AXH@Z@@QEAAP6AXH@Z$$QEAV<lambda_450d765d439847d4c735a33c368b5fc0>@@AEAV<lambda_44731a7d0e6d81c3e6aa82d741081786>@@$$QEAV<lambda_601a2a7da3b7a96e9554ac7215c4b07c>@@@Z 00000001800109fc f   libucrt:signal.obj
 0001:0000ff34       ?<lambda_invoker_cdecl>@<lambda_c2303d2482d7c3675ea2e24c4cfb6115>@@CAHPEBX0@Z 0000000180010f34 f   libucrt:argv_wildcards.obj
 0001:0000ff48       ??$common_expand_argv_wildcards@D@@YAHQEAPEADQEAPEAPEAD@Z 0000000180010f48 f   libucrt:argv_wildcards.obj
 0001:00010154       ??$copy_and_add_argument_to_buffer@D@@YAHQEBD0_KAEAV?$argument_list@D@?A0x5f5c8891@@@Z 0000000180011154 f   libucrt:argv_wildcards.obj
 0001:000102ec       ??$expand_argument_wildcards@D@@YAHQEAD0AEAV?$argument_list@D@?A0x5f5c8891@@@Z 00000001800112ec f   libucrt:argv_wildcards.obj
 0001:000104a0       ??$?RV<lambda_efdfa57d1f175319df784efa44bb7b81>@@AEAV<lambda_5f0a4c1567f8adc6734073e5d1e1b35c>@@V<lambda_2e8a7d3640ea6ccb4c2413664c2db6fd>@@@?$__crt_seh_guarded_call@X@@QEAAX$$QEAV<lambda_efdfa57d1f175319df784efa44bb7b81>@@AEAV<lambda_5f0a4c1567f8adc6734073e5d1e1b35c>@@$$QEAV<lambda_2e8a7d3640ea6ccb4c2413664c2db6fd>@@@Z 00000001800114a0 f   libucrt:mbctype.obj
 0001:00010674       ?getSystemCP@@YAHH@Z       0000000180011674 f   libucrt:mbctype.obj
 0001:000106f4       ?setSBCS@@YAXPEAU__crt_multibyte_data@@@Z 00000001800116f4 f   libucrt:mbctype.obj
 0001:00010784       ?setSBUpLow@@YAXPEAU__crt_multibyte_data@@@Z 0000000180011784 f   libucrt:mbctype.obj
 0001:00010964       ?setmbcp_internal@@YAHH_NQEAU__acrt_ptd@@QEAPEAU__crt_multibyte_data@@@Z 0000000180011964 f   libucrt:mbctype.obj
 0001:00010b28       ?update_thread_multibyte_data_internal@@YAPEAU__crt_multibyte_data@@QEAU__acrt_ptd@@QEAPEAU1@@Z 0000000180011b28 f   libucrt:mbctype.obj
 0001:00010f1c       ?x_ismbbtype_l@@YAHPEAU__crt_locale_pointers@@IHH@Z 0000000180011f1c f   libucrt:ismbbyte.obj
 0001:00011174       ?try_get_function@@YAPEAXW4function_id@?A0x391cf84c@@QEBDQEBW4module_id@2@2@Z 0000000180012174 f   libucrt:winapi_thunks.obj
 0001:00011b30       ?__acrt_LCMapStringA_stat@@YAHPEAU__crt_locale_pointers@@PEB_WKPEBDHPEADHHH@Z 0000000180012b30 f   libucrt:lcmapstringa.obj
 0001:00013bb8       memcpy_s                   0000000180014bb8 f   libucrt:cfout.obj
 0001:00013c40       ??$write_buffer_nolock@D@@YA_NDV__crt_stdio_stream@@@Z 0000000180014c40 f   libucrt:_flsbuf.obj
 0001:00013d20       ??$write_buffer_nolock@_W@@YA_N_WV__crt_stdio_stream@@@Z 0000000180014d20 f   libucrt:_flsbuf.obj
 0001:000142a4       ?free_crt_array_internal@@YAXQEAPEBX_K@Z 00000001800152a4 f   libucrt:inittime.obj
 0001:000148a4       ??$?RV<lambda_a37b2b86f63e897a80ea819b0eb08c01>@@AEAV<lambda_38ce7e780aa69e748d6df282ebc68efe>@@V<lambda_99fb1378e971ab6e7edea83e3a7a83a2>@@@?$__crt_seh_guarded_call@H@@QEAAH$$QEAV<lambda_a37b2b86f63e897a80ea819b0eb08c01>@@AEAV<lambda_38ce7e780aa69e748d6df282ebc68efe>@@$$QEAV<lambda_99fb1378e971ab6e7edea83e3a7a83a2>@@@Z 00000001800158a4 f   libucrt:commit.obj
 0001:000149c4       ?write_double_translated_ansi_nolock@@YA?AUwrite_result@?A0x17268360@@HQEBDI@Z 00000001800159c4 f   libucrt:write.obj
 0001:00014be8       ?write_text_ansi_nolock@@YA?AUwrite_result@?A0x17268360@@HQEBDI@Z 0000000180015be8 f   libucrt:write.obj
 0001:00014cec       ?write_text_utf16le_nolock@@YA?AUwrite_result@?A0x17268360@@HQEBDI@Z 0000000180015cec f   libucrt:write.obj
 0001:00014e08       ?write_text_utf8_nolock@@YA?AUwrite_result@?A0x17268360@@HQEBDI@Z 0000000180015e08 f   libucrt:write.obj
 0001:00015834       fallbackMethod             0000000180016834 f   libucrt:strpbrk.obj
 0001:00015c04       $LN78                      0000000180016c04     libucrt:strpbrk.obj
 0001:00015c40       $LN77                      0000000180016c40     libucrt:strpbrk.obj
 0001:00015c80       $LN76                      0000000180016c80     libucrt:strpbrk.obj
 0001:00015d58       ?initialize_multibyte@@YAHXZ 0000000180016d58 f   libucrt:multibyte_initializer.obj
 0001:00015e30       ?GetTableIndexFromLocaleName@@YAHPEB_W@Z 0000000180016e30 f   libucrt:lcidtoname_downlevel.obj
 0001:000160d0       $$000000                   00000001800170d0     libucrt:log10.obj
 0001:0001667c       ??$common_lseek@_J@@YA_JH_JH@Z 000000018001767c f   libucrt:lseek.obj
 0001:0001676c       ??$common_lseek_nolock@_J@@YA_JH_JH@Z 000000018001776c f   libucrt:lseek.obj
 0001:00016d34       _call_matherr              0000000180017d34 f   libucrt:libm_error.obj
 0001:00016d9c       _exception_enabled         0000000180017d9c f   libucrt:libm_error.obj
 0001:00017030       _log_special_common        0000000180018030 f   libucrt:log_special.obj
 0001:000170c8       ??$?RV<lambda_751a882b2c74d4b022dec766aa51a29a>@@AEAV<lambda_628dfdc04ba53c8bfc02c9951375f3f5>@@V<lambda_f6c7be5f7998530c34de24c7437d6b54>@@@?$__crt_seh_guarded_call@H@@QEAAH$$QEAV<lambda_751a882b2c74d4b022dec766aa51a29a>@@AEAV<lambda_628dfdc04ba53c8bfc02c9951375f3f5>@@$$QEAV<lambda_f6c7be5f7998530c34de24c7437d6b54>@@@Z 00000001800180c8 f   libucrt:close.obj
 0001:000173f0       $$000000                   00000001800183f0     libucrt:fpsr.obj
 0001:00018040       $$000000                   0000000180019040     LIBCMT:chkstk.obj
 0001:000181f0       $$000000                   00000001800191f0     libvcruntime:memcmp.obj
 0001:000182d0       $$000000                   00000001800192d0     LIBCMT:guard_dispatch.obj
 0001:000182f0       ?fin$0@?0??dllmain_crt_process_attach@@YAHQEAUHINSTANCE__@@QEAX@Z@4HA 00000001800192f0 f   LIBCMT:dll_dllmain.obj
 0001:00018307       ?fin$0@?0??dllmain_crt_process_detach@@YAH_N@Z@4HA 0000000180019307 f   LIBCMT:dll_dllmain.obj
 0001:00018323       ?filt$0@?0??dllmain_dispatch@@YAHQEAUHINSTANCE__@@KQEAX@Z@4HA 0000000180019323 f   LIBCMT:dll_dllmain.obj
 0001:00018359       __scrt_is_nonwritable_in_current_image$filt$0 0000000180019359 f   LIBCMT:utility.obj
 0001:00018371       __DestructExceptionObject$filt$0 0000000180019371 f   libvcruntime:ehhelpers.obj
 0001:00018389       ?fin$0@?0???$?RV<lambda_84ec643ea9557e2f7dc01bb0e9624395>@@AEAV<lambda_ca71763b3c0644891230e4f79ea54fa6>@@V<lambda_439a761618c59b0600e24586724d733b>@@@?$__crt_seh_guarded_call@H@@QEAAH$$QEAV<lambda_84ec643ea9557e2f7dc01bb0e9624395>@@AEAV<lambda_ca71763b3c0644891230e4f79ea54fa6>@@$$QEAV<lambda_439a761618c59b0600e24586724d733b>@@@Z@4HA 0000000180019389 f   libucrt:setvbuf.obj
 0001:00018389       ?fin$0@?0???$?RV<lambda_c376a267cfb53b6959b3b692ec76b120>@@AEAV<lambda_9a32fed5bf61b6b509b2d3f6003082a1>@@V<lambda_572fbb9fa0ab338edf41edfd4b5fcc8d>@@@?$__crt_seh_guarded_call@H@@QEAAH$$QEAV<lambda_c376a267cfb53b6959b3b692ec76b120>@@AEAV<lambda_9a32fed5bf61b6b509b2d3f6003082a1>@@$$QEAV<lambda_572fbb9fa0ab338edf41edfd4b5fcc8d>@@@Z@4HA 0000000180019389 f   libucrt:fflush.obj
 0001:00018389       ?fin$0@?0???$?RV<lambda_842d9ff0dc9ef11c61343bbaebe7f885>@@AEAV<lambda_c5860995281e5c4ce005b3de8f5874ee>@@V<lambda_d90129c13df834fdcbf8d2b88dafcf2d>@@@?$__crt_seh_guarded_call@X@@QEAAX$$QEAV<lambda_842d9ff0dc9ef11c61343bbaebe7f885>@@AEAV<lambda_c5860995281e5c4ce005b3de8f5874ee>@@$$QEAV<lambda_d90129c13df834fdcbf8d2b88dafcf2d>@@@Z@4HA 0000000180019389 f   libucrt:fflush.obj
 0001:00018389       ?fin$0@?0???$?RV<lambda_0d412022a4b28cc8a401ea49574e8ae6>@@AEAV<lambda_a775ed57af18ba8e4d5dc780aa9068fe>@@V<lambda_975a71a6baa488a08f4e15f6b0339b9e>@@@?$__crt_seh_guarded_call@H@@QEAAH$$QEAV<lambda_0d412022a4b28cc8a401ea49574e8ae6>@@AEAV<lambda_a775ed57af18ba8e4d5dc780aa9068fe>@@$$QEAV<lambda_975a71a6baa488a08f4e15f6b0339b9e>@@@Z@4HA 0000000180019389 f   libucrt:output.obj
 0001:000183a4       _query_new_handler$fin$0   00000001800193a4 f   libucrt:new_handler.obj
 0001:000183ba       ?fin$0@?0???$?RV<lambda_0ae27a3a962d80f24befdcbee591983d>@@AEAV<lambda_8d0ee55de4b1038c4002e0adecdf1839>@@V<lambda_dc504788e8f1664fe9b84e20bfb512f2>@@@?$__crt_seh_guarded_call@X@@QEAAX$$QEAV<lambda_0ae27a3a962d80f24befdcbee591983d>@@AEAV<lambda_8d0ee55de4b1038c4002e0adecdf1839>@@$$QEAV<lambda_dc504788e8f1664fe9b84e20bfb512f2>@@@Z@4HA 00000001800193ba f   libucrt:per_thread_data.obj
 0001:000183ba       ?fin$0@?0???$?RV<lambda_2d41944a1d46af3157314b8a01080d33>@@AEAV<lambda_8f455de75cd7d7f24b4096f044d8b9e6>@@V<lambda_aa500f224e6afead328df44964fe2772>@@@?$__crt_seh_guarded_call@X@@QEAAX$$QEAV<lambda_2d41944a1d46af3157314b8a01080d33>@@AEAV<lambda_8f455de75cd7d7f24b4096f044d8b9e6>@@$$QEAV<lambda_aa500f224e6afead328df44964fe2772>@@@Z@4HA 00000001800193ba f   libucrt:per_thread_data.obj
 0001:000183ba       ?fin$0@?0???$?RV<lambda_aa87e3671a710a21b5dc78c0bdf72e11>@@AEAV<lambda_92619d2358a28f41a33ba319515a20b9>@@V<lambda_6992ecaafeb10aed2b74cb1fae11a551>@@@?$__crt_seh_guarded_call@X@@QEAAX$$QEAV<lambda_aa87e3671a710a21b5dc78c0bdf72e11>@@AEAV<lambda_92619d2358a28f41a33ba319515a20b9>@@$$QEAV<lambda_6992ecaafeb10aed2b74cb1fae11a551>@@@Z@4HA 00000001800193ba f   libucrt:per_thread_data.obj
 0001:000183ba       ?fin$0@?0???$?RV<lambda_f2e299630e499de9f9a165e60fcd3db5>@@AEAV<lambda_2ae9d31cdba2644fcbeaf08da7c24588>@@V<lambda_40d01ff24d0e7b3814fdbdcee8eab3c7>@@@?$__crt_seh_guarded_call@X@@QEAAX$$QEAV<lambda_f2e299630e499de9f9a165e60fcd3db5>@@AEAV<lambda_2ae9d31cdba2644fcbeaf08da7c24588>@@$$QEAV<lambda_40d01ff24d0e7b3814fdbdcee8eab3c7>@@@Z@4HA 00000001800193ba f   libucrt:per_thread_data.obj
 0001:000183ba       ?fin$0@?0???$?RV<lambda_d80eeec6fff315bfe5c115232f3240e3>@@AEAV<lambda_6e4b09c48022b2350581041d5f6b0c4c>@@V<lambda_2358e3775559c9db80273638284d5e45>@@@?$__crt_seh_guarded_call@X@@QEAAX$$QEAV<lambda_d80eeec6fff315bfe5c115232f3240e3>@@AEAV<lambda_6e4b09c48022b2350581041d5f6b0c4c>@@$$QEAV<lambda_2358e3775559c9db80273638284d5e45>@@@Z@4HA 00000001800193ba f   libucrt:exit.obj
 0001:000183ba       ?fin$0@?0???$?RV<lambda_7777bce6b2f8c936911f934f8298dc43>@@AEAV<lambda_f03950bc5685219e0bcd2087efbe011e>@@V<lambda_3883c3dff614d5e0c5f61bb1ac94921c>@@@?$__crt_seh_guarded_call@H@@QEAAH$$QEAV<lambda_7777bce6b2f8c936911f934f8298dc43>@@AEAV<lambda_f03950bc5685219e0bcd2087efbe011e>@@$$QEAV<lambda_3883c3dff614d5e0c5f61bb1ac94921c>@@@Z@4HA 00000001800193ba f   libucrt:onexit.obj
 0001:000183ba       ?fin$0@?0???$?RV<lambda_450d765d439847d4c735a33c368b5fc0>@@AEAV<lambda_44731a7d0e6d81c3e6aa82d741081786>@@V<lambda_601a2a7da3b7a96e9554ac7215c4b07c>@@@?$__crt_seh_guarded_call@P6AXH@Z@@QEAAP6AXH@Z$$QEAV<lambda_450d765d439847d4c735a33c368b5fc0>@@AEAV<lambda_44731a7d0e6d81c3e6aa82d741081786>@@$$QEAV<lambda_601a2a7da3b7a96e9554ac7215c4b07c>@@@Z@4HA 00000001800193ba f   libucrt:signal.obj
 0001:000183ba       ?fin$0@?0???$?RV<lambda_efdfa57d1f175319df784efa44bb7b81>@@AEAV<lambda_5f0a4c1567f8adc6734073e5d1e1b35c>@@V<lambda_2e8a7d3640ea6ccb4c2413664c2db6fd>@@@?$__crt_seh_guarded_call@X@@QEAAX$$QEAV<lambda_efdfa57d1f175319df784efa44bb7b81>@@AEAV<lambda_5f0a4c1567f8adc6734073e5d1e1b35c>@@$$QEAV<lambda_2e8a7d3640ea6ccb4c2413664c2db6fd>@@@Z@4HA 00000001800193ba f   libucrt:mbctype.obj
 0001:000183d4       ?filt$0@?0???R<lambda_6e4b09c48022b2350581041d5f6b0c4c>@@QEBA@XZ@4HA 00000001800193d4 f   libucrt:exit.obj
 0001:000183ef       ?fin$0@?0???$?RV<lambda_410d79af7f07d98d83a3f525b3859a53>@@AEAV<lambda_3e16ef9562a7dcce91392c22ab16ea36>@@V<lambda_38119f0e861e05405d8a144b9b982f0a>@@@?$__crt_seh_guarded_call@X@@QEAAX$$QEAV<lambda_410d79af7f07d98d83a3f525b3859a53>@@AEAV<lambda_3e16ef9562a7dcce91392c22ab16ea36>@@$$QEAV<lambda_38119f0e861e05405d8a144b9b982f0a>@@@Z@4HA 00000001800193ef f   libucrt:wsetlocale.obj
 0001:00018409       __acrt_lowio_ensure_fh_exists$fin$0 0000000180019409 f   libucrt:osfinfo.obj
 0001:00018409       __acrt_initialize_lowio$fin$0 0000000180019409 f   libucrt:ioinit.obj
 0001:00018422       ?fin$0@?0???$?RV<lambda_886d6c58226a84441f68b9f2b8217b83>@@AEAV<lambda_ab61a845afdef5b7c387490eaf3616ee>@@V<lambda_f7f22ab5edc0698d5f6905b0d3f44752>@@@?$__crt_seh_guarded_call@X@@QEAAX$$QEAV<lambda_886d6c58226a84441f68b9f2b8217b83>@@AEAV<lambda_ab61a845afdef5b7c387490eaf3616ee>@@$$QEAV<lambda_f7f22ab5edc0698d5f6905b0d3f44752>@@@Z@4HA 0000000180019422 f   libucrt:fflush.obj
 0001:0001843f       raise$fin$0                000000018001943f f   libucrt:signal.obj
 0001:00018460       ?fin$0@?0??update_thread_multibyte_data_internal@@YAPEAU__crt_multibyte_data@@QEAU__acrt_ptd@@QEAPEAU1@@Z@4HA 0000000180019460 f   libucrt:mbctype.obj
 0001:00018479       __acrt_update_thread_locale_data$fin$0 0000000180019479 f   libucrt:locale_refcounting.obj
 0001:00018492       _fcloseall$fin$0           0000000180019492 f   libucrt:closeall.obj
 0001:000184ab       ?fin$0@?0???$?RV<lambda_751a882b2c74d4b022dec766aa51a29a>@@AEAV<lambda_628dfdc04ba53c8bfc02c9951375f3f5>@@V<lambda_f6c7be5f7998530c34de24c7437d6b54>@@@?$__crt_seh_guarded_call@H@@QEAAH$$QEAV<lambda_751a882b2c74d4b022dec766aa51a29a>@@AEAV<lambda_628dfdc04ba53c8bfc02c9951375f3f5>@@$$QEAV<lambda_f6c7be5f7998530c34de24c7437d6b54>@@@Z@4HA 00000001800194ab f   libucrt:close.obj
 0001:000184ab       ?fin$0@?0???$?RV<lambda_a37b2b86f63e897a80ea819b0eb08c01>@@AEAV<lambda_38ce7e780aa69e748d6df282ebc68efe>@@V<lambda_99fb1378e971ab6e7edea83e3a7a83a2>@@@?$__crt_seh_guarded_call@H@@QEAAH$$QEAV<lambda_a37b2b86f63e897a80ea819b0eb08c01>@@AEAV<lambda_38ce7e780aa69e748d6df282ebc68efe>@@$$QEAV<lambda_99fb1378e971ab6e7edea83e3a7a83a2>@@@Z@4HA 00000001800194ab f   libucrt:commit.obj
 0001:000184c5       _write$fin$0               00000001800194c5 f   libucrt:write.obj
 0001:000184c5       ?fin$0@?0???$common_lseek@_J@@YA_JH_JH@Z@4HA 00000001800194c5 f   libucrt:lseek.obj
 0001:000184dc       fclose$fin$0               00000001800194dc f   libucrt:fclose.obj
 0001:000184f4       _ctrlfp$filt$0             00000001800194f4 f   libucrt:fpctrl.obj
 0001:00018520       _IsNonwritableInCurrentImage$filt$0 0000000180019520 f   LIBCMT:pesect.obj
 0002:000002f8       GS_ExceptionPointers       000000018001a2f8     LIBCMT:gs_report.obj
 0002:000003d0       ?ExceptionTemplate@?1??_CxxThrowException@@9@4UEHExceptionRecord@@B 000000018001a3d0     libvcruntime:throw.obj
 0002:00000420       ?tokenTable@@3QBQEBDB      000000018001a420     libvcruntime:undname.obj
 0002:000004a0       ?nameTable@@3QBQEBDB       000000018001a4a0     libvcruntime:undname.obj
 0002:00000730       ?rttiTable@@3QBQEBDB       000000018001a730     libvcruntime:undname.obj
 0002:00000de8       ?module_names@?A0x14c33c87@@3QBQEB_WB 000000018001ade8     libvcruntime:winapi_downlevel.obj
 0002:00000eb8       ?candidate_modules@?1??try_get_FlsAlloc@@YAP6AKP6AXPEAX@Z@ZXZ@4QBW4module_id@?A0x14c33c87@@B 000000018001aeb8     libvcruntime:winapi_downlevel.obj
 0002:00000ed0       ?candidate_modules@?1??try_get_FlsFree@@YAP6AHK@ZXZ@4QBW4module_id@?A0x14c33c87@@B 000000018001aed0     libvcruntime:winapi_downlevel.obj
 0002:00000ee0       ?candidate_modules@?1??try_get_FlsGetValue@@YAP6APEAXK@ZXZ@4QBW4module_id@?A0x14c33c87@@B 000000018001aee0     libvcruntime:winapi_downlevel.obj
 0002:00000ef8       ?candidate_modules@?1??try_get_FlsSetValue@@YAP6AHKPEAX@ZXZ@4QBW4module_id@?A0x14c33c87@@B 000000018001aef8     libvcruntime:winapi_downlevel.obj
 0002:00000f10       ?candidate_modules@?1??try_get_InitializeCriticalSectionEx@@YAP6AHPEAU_RTL_CRITICAL_SECTION@@KK@ZXZ@4QBW4module_id@?A0x14c33c87@@B 000000018001af10     libvcruntime:winapi_downlevel.obj
 0002:000013a0       __acrt_initializers        000000018001b3a0     libucrt:initialization.obj
 0002:000014a0       ?errtable@@3QBUerrentry@?A0x31fdb9ec@@B 000000018001b4a0     libucrt:errno.obj
 0002:000024e8       ?_mb_locale_names@@3QBQEB_WB 000000018001c4e8     libucrt:mbctype.obj
 0002:00002550       ?module_names@?A0x391cf84c@@3QBQEB_WB 000000018001c550     libucrt:winapi_thunks.obj
 0002:00002af8       ?candidate_modules@?1??try_get_FlsAlloc@@YAP6AKP6AXPEAX@Z@ZXZ@4QBW4module_id@?A0x391cf84c@@B 000000018001caf8     libucrt:winapi_thunks.obj
 0002:00002b10       ?candidate_modules@?1??try_get_FlsFree@@YAP6AHK@ZXZ@4QBW4module_id@?A0x391cf84c@@B 000000018001cb10     libucrt:winapi_thunks.obj
 0002:00002b20       ?candidate_modules@?1??try_get_FlsGetValue@@YAP6APEAXK@ZXZ@4QBW4module_id@?A0x391cf84c@@B 000000018001cb20     libucrt:winapi_thunks.obj
 0002:00002b38       ?candidate_modules@?1??try_get_FlsSetValue@@YAP6AHKPEAX@ZXZ@4QBW4module_id@?A0x391cf84c@@B 000000018001cb38     libucrt:winapi_thunks.obj
 0002:00002b50       ?candidate_modules@?1??try_get_GetActiveWindow@@YAP6APEAUHWND__@@XZXZ@4QBW4module_id@?A0x391cf84c@@B 000000018001cb50     libucrt:winapi_thunks.obj
 0002:00002b68       ?candidate_modules@?1??try_get_GetLastActivePopup@@YAP6APEAUHWND__@@PEAU2@@ZXZ@4QBW4module_id@?A0x391cf84c@@B 000000018001cb68     libucrt:winapi_thunks.obj
 0002:00002b88       ?candidate_modules@?1??try_get_GetProcessWindowStation@@YAP6APEAUHWINSTA__@@XZXZ@4QBW4module_id@?A0x391cf84c@@B 000000018001cb88     libucrt:winapi_thunks.obj
 0002:00002ba8       ?candidate_modules@?1??try_get_GetUserObjectInformationW@@YAP6AHPEAXH0KPEAK@ZXZ@4QBW4module_id@?A0x391cf84c@@B 000000018001cba8     libucrt:winapi_thunks.obj
 0002:00002bd0       ?candidate_modules@?1??try_get_InitializeCriticalSectionEx@@YAP6AHPEAU_RTL_CRITICAL_SECTION@@KK@ZXZ@4QBW4module_id@?A0x391cf84c@@B 000000018001cbd0     libucrt:winapi_thunks.obj
 0002:00002bf8       ?candidate_modules@?1??try_get_LCMapStringEx@@YAP6AHPEB_WK0HPEA_WHPEAU_nlsversioninfo@@PEAX_J@ZXZ@4QBW4module_id@?A0x391cf84c@@B 000000018001cbf8     libucrt:winapi_thunks.obj
 0002:00002c10       ?candidate_modules@?1??try_get_LocaleNameToLCID@@YAP6AKPEB_WK@ZXZ@4QBW4module_id@?A0x391cf84c@@B 000000018001cc10     libucrt:winapi_thunks.obj
 0002:00002c30       ?candidate_modules@?1??try_get_MessageBoxA@@YAP6AHPEAUHWND__@@PEBD1I@ZXZ@4QBW4module_id@?A0x391cf84c@@B 000000018001cc30     libucrt:winapi_thunks.obj
 0002:00002c48       ?candidate_modules@?1??try_get_MessageBoxW@@YAP6AHPEAUHWND__@@PEB_W1I@ZXZ@4QBW4module_id@?A0x391cf84c@@B 000000018001cc48     libucrt:winapi_thunks.obj
 0002:00002c5c       ?candidate_modules@?1??try_get_AppPolicyGetProcessTerminationMethod@@YAP6AJPEAXPEAW4AppPolicyProcessTerminationMethod@@@ZXZ@4QBW4module_id@?A0x391cf84c@@B 000000018001cc5c     libucrt:winapi_thunks.obj
 0002:00002c88       ?candidate_modules@?1??try_get_AppPolicyGetShowDeveloperDiagnostic@@YAP6AJPEAXPEAW4AppPolicyShowDeveloperDiagnostic@@@ZXZ@4QBW4module_id@?A0x391cf84c@@B 000000018001cc88     libucrt:winapi_thunks.obj
 0002:00002cb4       ?candidate_modules@?1??try_get_AppPolicyGetWindowingModel@@YAP6AJPEAXPEAW4AppPolicyWindowingModel@@@ZXZ@4QBW4module_id@?A0x391cf84c@@B 000000018001ccb4     libucrt:winapi_thunks.obj
 0002:000040c0       ?LocaleNameToIndexTable@?A0x881e4c05@@3QBULocaleNameIndex@1@B 000000018001e0c0     libucrt:lcidtoname_downlevel.obj
 0002:00005960       ?LcidToLocaleNameTable@?A0x881e4c05@@3QBULcidToLocaleName@1@B 000000018001f960     libucrt:lcidtoname_downlevel.obj
 0002:000069e0       __real_ninf                00000001800209e0     libucrt:log10.obj
 0002:000069f0       __real_inf                 00000001800209f0     libucrt:log10.obj
 0002:00006a00       __real_neg_qnan            0000000180020a00     libucrt:log10.obj
 0002:00006a10       __real_qnanbit             0000000180020a10     libucrt:log10.obj
 0002:00006a20       __int_1023                 0000000180020a20     libucrt:log10.obj
 0002:00006a30       __mask_001                 0000000180020a30     libucrt:log10.obj
 0002:00006a40       __mask_mant                0000000180020a40     libucrt:log10.obj
 0002:00006a50       __mask_mant_top8           0000000180020a50     libucrt:log10.obj
 0002:00006a60       __mask_mant9               0000000180020a60     libucrt:log10.obj
 0002:00006a70       __real_log10_e             0000000180020a70     libucrt:log10.obj
 0002:00006a80       __real_log10_e_lead        0000000180020a80     libucrt:log10.obj
 0002:00006a90       __real_log10_e_tail        0000000180020a90     libucrt:log10.obj
 0002:00006aa0       __real_log10_2_lead        0000000180020aa0     libucrt:log10.obj
 0002:00006ab0       __real_log10_2_tail        0000000180020ab0     libucrt:log10.obj
 0002:00006ac0       __real_two                 0000000180020ac0     libucrt:log10.obj
 0002:00006ad0       __real_one                 0000000180020ad0     libucrt:log10.obj
 0002:00006ae0       __real_half                0000000180020ae0     libucrt:log10.obj
 0002:00006af0       __mask_100                 0000000180020af0     libucrt:log10.obj
 0002:00006b00       __real_1_over_512          0000000180020b00     libucrt:log10.obj
 0002:00006b10       __real_1_over_2            0000000180020b10     libucrt:log10.obj
 0002:00006b20       __real_1_over_3            0000000180020b20     libucrt:log10.obj
 0002:00006b30       __real_1_over_4            0000000180020b30     libucrt:log10.obj
 0002:00006b40       __real_1_over_5            0000000180020b40     libucrt:log10.obj
 0002:00006b50       __real_1_over_6            0000000180020b50     libucrt:log10.obj
 0002:00006b60       __real_neg_1023            0000000180020b60     libucrt:log10.obj
 0002:00006b70       __mask_2045                0000000180020b70     libucrt:log10.obj
 0002:00006b80       __real_threshold           0000000180020b80     libucrt:log10.obj
 0002:00006b90       __real_near_one_lt         0000000180020b90     libucrt:log10.obj
 0002:00006ba0       __real_near_one_gt         0000000180020ba0     libucrt:log10.obj
 0002:00006bb0       __real_min_norm            0000000180020bb0     libucrt:log10.obj
 0002:00006bc0       __real_notsign             0000000180020bc0     libucrt:log10.obj
 0002:00006bd0       __real_ca1                 0000000180020bd0     libucrt:log10.obj
 0002:00006be0       __real_ca2                 0000000180020be0     libucrt:log10.obj
 0002:00006bf0       __real_ca3                 0000000180020bf0     libucrt:log10.obj
 0002:00006c00       __real_ca4                 0000000180020c00     libucrt:log10.obj
 0002:00006c10       __mask_lower               0000000180020c10     libucrt:log10.obj
 0002:00006c20       __flag_x_zero              0000000180020c20     libucrt:log10.obj
 0002:00006c24       __flag_x_neg               0000000180020c24     libucrt:log10.obj
 0002:00006c28       __flag_x_nan               0000000180020c28     libucrt:log10.obj
 0002:00008480       __real@433fffffffffffff    0000000180022480     libucrt:fpsr.obj
 0002:00008488       __real@c33fffffffffffff    0000000180022488     libucrt:fpsr.obj
 0002:000085f0       ?initstate@?1??Blowfish_initstate@@YAXPEAUBlowfishContext@@@Z@4U2@B 00000001800225f0     blowfish.obj
 0002:00009670       ?index_64@@3QBEB           0000000180023670     bcrypt.obj
 0002:000096f0       ?error@@3PEBDEB            00000001800236f0     bcrypt.obj
 0002:00009700       ?Base64Code@@3QBEB         0000000180023700     bcrypt.obj
 0002:00009ad0       ??_7EncryptAsyncWorker@?A0x6ae9514c@@6B@ 0000000180023ad0     bcrypt_node.obj
 0002:00009b00       ??_7CompareAsyncWorker@?A0x6ae9514c@@6B@ 0000000180023b00     bcrypt_node.obj
 0002:00009b30       ??_7SaltAsyncWorker@?A0x6ae9514c@@6B@ 0000000180023b30     bcrypt_node.obj
 0002:0000a310       $unwind$?Blowfish_encipher@@YAXPEAUBlowfishContext@@PEAI1@Z 0000000180024310     blowfish.obj
 0002:0000a31c       $unwind$?Blowfish_expand0state@@YAXPEAUBlowfishContext@@PEBEG@Z 000000018002431c     blowfish.obj
 0002:0000a31c       $unwind$__acrt_MessageBoxW 000000018002431c     libucrt:winapi_thunks.obj
 0002:0000a31c       $unwind$_invalid_parameter 000000018002431c     libucrt:invalid_parameter.obj
 0002:0000a330       $unwind$?Blowfish_expandstate@@YAXPEAUBlowfishContext@@PEBEG1G@Z 0000000180024330     blowfish.obj
 0002:0000a348       $unwind$swprintf           0000000180024348     libucrt:assert.obj
 0002:0000a348       $unwind$_snprintf          0000000180024348     bcrypt.obj
 0002:0000a358       $unwind$?bcrypt@@YAXPEBD0PEAD@Z 0000000180024358     bcrypt.obj
 0002:0000a374       $chain$0$?bcrypt@@YAXPEBD0PEAD@Z 0000000180024374     bcrypt.obj
 0002:0000a388       $chain$1$?bcrypt@@YAXPEBD0PEAD@Z 0000000180024388     bcrypt.obj
 0002:0000a39c       $chain$2$?bcrypt@@YAXPEBD0PEAD@Z 000000018002439c     bcrypt.obj
 0002:0000a3ac       $chain$3$?bcrypt@@YAXPEBD0PEAD@Z 00000001800243ac     bcrypt.obj
 0002:0000a3bc       $unwind$?encode_base64@@YAXPEAE0G@Z 00000001800243bc     bcrypt.obj
 0002:0000a3c4       $chain$0$?encode_base64@@YAXPEAE0G@Z 00000001800243c4     bcrypt.obj
 0002:0000a3d8       $chain$4$?encode_base64@@YAXPEAE0G@Z 00000001800243d8     bcrypt.obj
 0002:0000a3d8       $chain$2$?encode_base64@@YAXPEAE0G@Z 00000001800243d8     bcrypt.obj
 0002:0000a3ec       $chain$5$?encode_base64@@YAXPEAE0G@Z 00000001800243ec     bcrypt.obj
 0002:0000a3fc       $unwind$?FunctionCallbackWrapper@imp@Nan@@YAXAEBV?$FunctionCallbackInfo@VValue@v8@@@v8@@@Z 00000001800243fc     bcrypt_node.obj
 0002:0000a410       $unwind$?ThrowTypeError@Nan@@YAXPEBD@Z 0000000180024410     bcrypt_node.obj
 0002:0000a410       $unwind$?ThrowError@Nan@@YAXPEBD@Z 0000000180024410     bcrypt_node.obj
 0002:0000a410       $unwind$?HandleOKCallback@AsyncWorker@Nan@@MEAAXXZ 0000000180024410     bcrypt_node.obj
 0002:0000a418       $unwind$??0Utf8String@Nan@@QEAA@V?$Local@VValue@v8@@@v8@@@Z 0000000180024418     bcrypt_node.obj
 0002:0000a424       $chain$1$??0Utf8String@Nan@@QEAA@V?$Local@VValue@v8@@@v8@@@Z 0000000180024424     bcrypt_node.obj
 0002:0000a43c       $chain$2$??0Utf8String@Nan@@QEAA@V?$Local@VValue@v8@@@v8@@@Z 000000018002443c     bcrypt_node.obj
 0002:0000a44c       $unwind$?Call@Callback@Nan@@QEBA?AV?$MaybeLocal@VValue@v8@@@v8@@HQEAV?$Local@VValue@v8@@@4@PEAVAsyncResource@2@@Z 000000018002444c     bcrypt_node.obj
 0002:0000a460       $unwind$??0AsyncWorker@Nan@@QEAA@PEAVCallback@1@PEBD@Z 0000000180024460     bcrypt_node.obj
 0002:0000a470       $unwind$??1AsyncWorker@Nan@@UEAA@XZ 0000000180024470     bcrypt_node.obj
 0002:0000a47c       $unwind$?WorkComplete@AsyncWorker@Nan@@UEAAXXZ 000000018002447c     bcrypt_node.obj
 0002:0000a47c       $unwind$_mbsdec_l          000000018002447c     libucrt:mbsdec.obj
 0002:0000a488       $unwind$?HandleErrorCallback@AsyncWorker@Nan@@MEAAXXZ 0000000180024488     bcrypt_node.obj
 0002:0000a498       $unwind$??_Gbad_alloc@std@@UEAAPEAXI@Z 0000000180024498     LIBCMT:throw_bad_alloc.obj
 0002:0000a498       $unwind$_initterm_e        0000000180024498     libucrt:initterm.obj
 0002:0000a498       $unwind$??_Gexception@std@@UEAAPEAXI@Z 0000000180024498     LIBCMT:throw_bad_alloc.obj
 0002:0000a498       $unwind$__vcrt_FlsSetValue 0000000180024498     libvcruntime:winapi_downlevel.obj
 0002:0000a498       $unwind$__acrt_LocaleNameToLCID 0000000180024498     libucrt:winapi_thunks.obj
 0002:0000a498       $unwind$??_Gbad_array_new_length@std@@UEAAPEAXI@Z 0000000180024498     LIBCMT:throw_bad_alloc.obj
 0002:0000a498       $unwind$__acrt_FlsSetValue 0000000180024498     libucrt:winapi_thunks.obj
 0002:0000a498       $unwind$??_GSaltAsyncWorker@?A0x6ae9514c@@UEAAPEAXI@Z 0000000180024498     bcrypt_node.obj
 0002:0000a498       $unwind$__acrt_uninitialize_lowio 0000000180024498     libucrt:ioinit.obj
 0002:0000a498       $unwind$__acrt_can_show_message_box 0000000180024498     libucrt:winapi_thunks.obj
 0002:0000a498       $unwind$?replace_current_thread_locale_nolock@@YAXQEAU__acrt_ptd@@QEAU__crt_locale_data@@@Z 0000000180024498     libucrt:per_thread_data.obj
 0002:0000a498       $unwind$wcsncat_s          0000000180024498     libucrt:wcsncat_s.obj
 0002:0000a498       $unwind$_close_nolock      0000000180024498     libucrt:close.obj
 0002:0000a498       $unwind$??_Glogic_error@std@@UEAAPEAXI@Z 0000000180024498     libcpmt:xthrow.obj
 0002:0000a498       $unwind$__acrt_stdio_begin_temporary_buffering_nolock 0000000180024498     libucrt:_sftbuf.obj
 0002:0000a498       $unwind$_realloc_base      0000000180024498     libucrt:realloc_base.obj
 0002:0000a498       $unwind$?type_case_c_tchar@?$output_processor@DV?$string_output_adapter@D@__crt_stdio_output@@V?$standard_base@DV?$string_output_adapter@D@__crt_stdio_output@@@2@@__crt_stdio_output@@AEAA_ND@Z 0000000180024498     libucrt:output.obj
 0002:0000a498       $unwind$__acrt_errno_map_os_error 0000000180024498     libucrt:errno.obj
 0002:0000a498       $unwind$??_Glength_error@std@@UEAAPEAXI@Z 0000000180024498     libcpmt:xthrow.obj
 0002:0000a498       $unwind$??1EncryptAsyncWorker@?A0x6ae9514c@@UEAA@XZ 0000000180024498     bcrypt_node.obj
 0002:0000a498       $unwind$??_GEncryptAsyncWorker@?A0x6ae9514c@@UEAAPEAXI@Z 0000000180024498     bcrypt_node.obj
 0002:0000a498       $unwind$_fclose_nolock     0000000180024498     libucrt:fclose.obj
 0002:0000a498       $unwind$??$common_xtox@K_W@@YAHKQEA_W_KI_N@Z 0000000180024498     libucrt:xtoa.obj
 0002:0000a498       $unwind$__acrt_getptd      0000000180024498     libucrt:per_thread_data.obj
 0002:0000a498       $unwind$__acrt_getptd_noexit 0000000180024498     libucrt:per_thread_data.obj
 0002:0000a498       $unwind$??$common_initialize_environment_nolock@D@@YAHXZ 0000000180024498     libucrt:environment_initialization.obj
 0002:0000a498       $unwind$_RTC_Terminate     0000000180024498     LIBCMT:initsect.obj
 0002:0000a498       $unwind$__acrt_execute_uninitializers 0000000180024498     libucrt:shared_initialization.obj
 0002:0000a498       $unwind$_RTC_Initialize    0000000180024498     LIBCMT:initsect.obj
 0002:0000a498       $unwind$??_GAsyncWorker@Nan@@UEAAPEAXI@Z 0000000180024498     bcrypt_node.obj
 0002:0000a498       $unwind$?force_decimal_point@__crt_stdio_output@@YAXPEADQEAU__crt_locale_pointers@@@Z 0000000180024498     libucrt:output.obj
 0002:0000a498       $unwind$??0_LocaleUpdate@@QEAA@QEAU__crt_locale_pointers@@@Z 0000000180024498     libucrt:output.obj
 0002:0000a498       $unwind$strncpy_s          0000000180024498     libucrt:strncpy_s.obj
 0002:0000a498       $unwind$??_GCompareAsyncWorker@?A0x6ae9514c@@UEAAPEAXI@Z 0000000180024498     bcrypt_node.obj
 0002:0000a498       $unwind$?DloadGetSRWLockFunctionPointers@@YAEXZ 0000000180024498     DelayImp:delayhlp.obj
 0002:0000a498       $unwind$_updatetlocinfoEx_nolock 0000000180024498     libucrt:locale_refcounting.obj
 0002:0000a4a4       $unwind$_set_statfp        00000001800244a4     libucrt:fpctrl.obj
 0002:0000a4a4       $unwind$__acrt_get_windowing_model_policy 00000001800244a4     libucrt:win_policies.obj
 0002:0000a4a4       $unwind$_calloc_base       00000001800244a4     libucrt:calloc_base.obj
 0002:0000a4a4       $unwind$__acrt_get_process_end_policy 00000001800244a4     libucrt:win_policies.obj
 0002:0000a4a4       $unwind$??2@YAPEAX_K@Z     00000001800244a4     LIBCMT:new_scalar.obj
 0002:0000a4a4       $unwind$__acrt_uninitialize_locks 00000001800244a4     libucrt:locks.obj
 0002:0000a4a4       $unwind$?init@@YAXV?$Local@VObject@v8@@@v8@@@Z 00000001800244a4     bcrypt_node.obj
 0002:0000a4a4       $unwind$__acrt_initialize_locks 00000001800244a4     libucrt:locks.obj
 0002:0000a4a4       $unwind$initialize_pointers 00000001800244a4     libucrt:initialization.obj
 0002:0000a4a4       $unwind$uninitialize_allocated_memory 00000001800244a4     libucrt:initialization.obj
 0002:0000a4a4       $unwind$??_Gtype_info@@UEAAPEAXI@Z 00000001800244a4     LIBCMT:std_type_info_static.obj
 0002:0000a4a4       $unwind$strcpy_s           00000001800244a4     libucrt:strcpy_s.obj
 0002:0000a4a4       $unwind$_clrfp             00000001800244a4     libucrt:fpctrl.obj
 0002:0000a4a4       $unwind$__acrt_allocate_buffer_for_argv 00000001800244a4     libucrt:argv_parsing.obj
 0002:0000a4a4       $unwind$?internal_isupper_l@@YA_NHQEAU__crt_locale_pointers@@@Z 00000001800244a4     libucrt:tolower_toupper.obj
 0002:0000a4a4       $unwind$?exit_or_terminate_process@@YAXI@Z 00000001800244a4     libucrt:exit.obj
 0002:0000a4a4       $unwind$??0logic_error@std@@QEAA@AEBV01@@Z 00000001800244a4     libcpmt:xthrow.obj
 0002:0000a4a4       $unwind$?try_cor_exit_process@@YAXI@Z 00000001800244a4     libucrt:exit.obj
 0002:0000a4a4       $unwind$__acrt_uninitialize_winapi_thunks 00000001800244a4     libucrt:winapi_thunks.obj
 0002:0000a4a4       $unwind$_fflush_nolock     00000001800244a4     libucrt:fflush.obj
 0002:0000a4a4       $unwind$__acrt_FlsAlloc    00000001800244a4     libucrt:winapi_thunks.obj
 0002:0000a4a4       $unwind$?DloadAcquireSectionWriteAccess@@YAXXZ 00000001800244a4     DelayImp:delayhlp.obj
 0002:0000a4a4       $unwind$_malloc_base       00000001800244a4     libucrt:malloc_base.obj
 0002:0000a4a4       $unwind$__acrt_FlsFree     00000001800244a4     libucrt:winapi_thunks.obj
 0002:0000a4a4       $unwind$wcscpy_s           00000001800244a4     libucrt:wcscpy_s.obj
 0002:0000a4a4       $unwind$__acrt_FlsGetValue 00000001800244a4     libucrt:winapi_thunks.obj
 0002:0000a4a4       $unwind$wcscat_s           00000001800244a4     libucrt:wcscat_s.obj
 0002:0000a4a4       $unwind$fegetenv           00000001800244a4     libucrt:fegetenv.obj
 0002:0000a4a4       $unwind$__scrt_uninitialize_crt 00000001800244a4     LIBCMT:utility.obj
 0002:0000a4a4       $unwind$?ValidateSalt@?A0x6ae9514c@@YA_NPEBD@Z 00000001800244a4     bcrypt_node.obj
 0002:0000a4a4       $unwind$fesetenv           00000001800244a4     libucrt:fesetenv.obj
 0002:0000a4a4       $unwind$__vcrt_FlsAlloc    00000001800244a4     libvcruntime:winapi_downlevel.obj
 0002:0000a4a4       $unwind$feholdexcept       00000001800244a4     libucrt:feholdexcept.obj
 0002:0000a4a4       $unwind$?state_case_normal@?$output_processor@DV?$string_output_adapter@D@__crt_stdio_output@@V?$standard_base@DV?$string_output_adapter@D@__crt_stdio_output@@@2@@__crt_stdio_output@@AEAA_NXZ 00000001800244a4     libucrt:output.obj
 0002:0000a4a4       $unwind$__acrt_AppPolicyGetProcessTerminationMethodInternal 00000001800244a4     libucrt:winapi_thunks.obj
 0002:0000a4a4       $unwind$__vcrt_FlsGetValue 00000001800244a4     libvcruntime:winapi_downlevel.obj
 0002:0000a4a4       $unwind$__acrt_AppPolicyGetShowDeveloperDiagnosticInternal 00000001800244a4     libucrt:winapi_thunks.obj
 0002:0000a4a4       $unwind$__acrt_AppPolicyGetWindowingModelInternal 00000001800244a4     libucrt:winapi_thunks.obj
 0002:0000a4a4       $unwind$??0length_error@std@@QEAA@AEBV01@@Z 00000001800244a4     libcpmt:xthrow.obj
 0002:0000a4a4       $unwind$__acrt_get_parent_window 00000001800244a4     libucrt:winapi_thunks.obj
 0002:0000a4a4       $unwind$?AsyncQueueWorker@Nan@@YAXPEAVAsyncWorker@1@@Z 00000001800244a4     bcrypt_node.obj
 0002:0000a4a4       $unwind$_callnewh          00000001800244a4     libucrt:new_handler.obj
 0002:0000a4a4       $unwind$__scrt_initialize_crt 00000001800244a4     LIBCMT:utility.obj
 0002:0000a4a4       $unwind$?type_case_s@?$output_processor@DV?$string_output_adapter@D@__crt_stdio_output@@V?$standard_base@DV?$string_output_adapter@D@__crt_stdio_output@@@2@@__crt_stdio_output@@AEAA_NXZ 00000001800244a4     libucrt:output.obj
 0002:0000a4a4       $unwind$?AsyncExecuteComplete@Nan@@YAXPEAUuv_work_s@@@Z 00000001800244a4     bcrypt_node.obj
 0002:0000a4a4       $unwind$__std_exception_destroy 00000001800244a4     libvcruntime:std_exception.obj
 0002:0000a4a4       $unwind$__std_type_info_destroy_list 00000001800244a4     libvcruntime:std_type_info.obj
 0002:0000a4a4       $unwind$__acrt_getptd_head 00000001800244a4     libucrt:per_thread_data.obj
 0002:0000a4a4       $unwind$__acrt_freeptd     00000001800244a4     libucrt:per_thread_data.obj
 0002:0000a4a4       $unwind$__scrt_release_startup_lock 00000001800244a4     LIBCMT:utility.obj
 0002:0000a4a4       $unwind$_clearfp           00000001800244a4     libucrt:ieee.obj
 0002:0000a4a4       $unwind$__acrt_uninitialize_stdio 00000001800244a4     libucrt:_file.obj
 0002:0000a4a4       $unwind$__vcrt_FlsFree     00000001800244a4     libvcruntime:winapi_downlevel.obj
 0002:0000a4a4       $unwind$__vcrt_freeptd     00000001800244a4     libvcruntime:per_thread_data.obj
 0002:0000a4a4       $unwind$__raise_securityfailure 00000001800244a4     LIBCMT:gs_report.obj
 0002:0000a4a4       $unwind$??0exception@std@@QEAA@AEBV01@@Z 00000001800244a4     LIBCMT:throw_bad_alloc.obj
 0002:0000a4a4       $unwind$__vcrt_initialize_locks 00000001800244a4     libvcruntime:locks.obj
 0002:0000a4a4       $unwind$__acrt_stdio_free_buffer_nolock 00000001800244a4     libucrt:_freebuf.obj
 0002:0000a4a4       $unwind$??0bad_alloc@std@@QEAA@AEBV01@@Z 00000001800244a4     LIBCMT:throw_bad_alloc.obj
 0002:0000a4a4       $unwind$__acrt_stdio_allocate_buffer_nolock 00000001800244a4     libucrt:_getbuf.obj
 0002:0000a4a4       $unwind$??0bad_array_new_length@std@@QEAA@AEBV01@@Z 00000001800244a4     LIBCMT:throw_bad_alloc.obj
 0002:0000a4a4       $unwind$__vcrt_uninitialize_locks 00000001800244a4     libvcruntime:locks.obj
 0002:0000a4a4       $unwind$?load_exe_hook@@YAP6A_JXZIPEAUDelayLoadInfo@@@Z 00000001800244a4     win_delay_load_hook.obj
 0002:0000a4a4       $unwind$__acrt_update_locale_info 00000001800244a4     libucrt:locale_update.obj
 0002:0000a4a4       $unwind$__acrt_get_developer_information_policy 00000001800244a4     libucrt:win_policies.obj
 0002:0000a4a4       $unwind$__acrt_fp_strflt_to_string 00000001800244a4     libucrt:_fptostr.obj
 0002:0000a4a4       $unwind$__acrt_update_multibyte_info 00000001800244a4     libucrt:locale_update.obj
 0002:0000a4ac       $unwind$?Export@Nan@@YAXV?$Local@VObject@v8@@@v8@@PEBDP6AXAEBV?$FunctionCallbackInfo@VValue@v8@@@1@@Z@Z 00000001800244ac     bcrypt_node.obj
 0002:0000a4c8       $unwind$?ToCharVersion@?A0x6ae9514c@@YADV?$Local@VString@v8@@@v8@@@Z 00000001800244c8     bcrypt_node.obj
 0002:0000a4dc       $unwind$?Execute@SaltAsyncWorker@?A0x6ae9514c@@UEAAXXZ 00000001800244dc     bcrypt_node.obj
 0002:0000a4f0       $unwind$?HandleOKCallback@SaltAsyncWorker@?A0x6ae9514c@@UEAAXXZ 00000001800244f0     bcrypt_node.obj
 0002:0000a4f0       $unwind$?HandleOKCallback@CompareAsyncWorker@?A0x6ae9514c@@UEAAXXZ 00000001800244f0     bcrypt_node.obj
 0002:0000a500       $unwind$?GenerateSalt@?A0x6ae9514c@@YAXAEBV?$FunctionCallbackInfo@VValue@v8@@@Nan@@@Z 0000000180024500     bcrypt_node.obj
 0002:0000a508       $chain$5$?GenerateSalt@?A0x6ae9514c@@YAXAEBV?$FunctionCallbackInfo@VValue@v8@@@Nan@@@Z 0000000180024508     bcrypt_node.obj
 0002:0000a530       $chain$6$?GenerateSalt@?A0x6ae9514c@@YAXAEBV?$FunctionCallbackInfo@VValue@v8@@@Nan@@@Z 0000000180024530     bcrypt_node.obj
 0002:0000a540       $unwind$?GenerateSaltSync@?A0x6ae9514c@@YAXAEBV?$FunctionCallbackInfo@VValue@v8@@@Nan@@@Z 0000000180024540     bcrypt_node.obj
 0002:0000a554       $chain$0$?GenerateSaltSync@?A0x6ae9514c@@YAXAEBV?$FunctionCallbackInfo@VValue@v8@@@Nan@@@Z 0000000180024554     bcrypt_node.obj
 0002:0000a568       $chain$2$?GenerateSaltSync@?A0x6ae9514c@@YAXAEBV?$FunctionCallbackInfo@VValue@v8@@@Nan@@@Z 0000000180024568     bcrypt_node.obj
 0002:0000a580       $chain$3$?GenerateSaltSync@?A0x6ae9514c@@YAXAEBV?$FunctionCallbackInfo@VValue@v8@@@Nan@@@Z 0000000180024580     bcrypt_node.obj
 0002:0000a594       $chain$4$?GenerateSaltSync@?A0x6ae9514c@@YAXAEBV?$FunctionCallbackInfo@VValue@v8@@@Nan@@@Z 0000000180024594     bcrypt_node.obj
 0002:0000a5a4       $chain$5$?GenerateSaltSync@?A0x6ae9514c@@YAXAEBV?$FunctionCallbackInfo@VValue@v8@@@Nan@@@Z 00000001800245a4     bcrypt_node.obj
 0002:0000a5b4       $chain$6$?GenerateSaltSync@?A0x6ae9514c@@YAXAEBV?$FunctionCallbackInfo@VValue@v8@@@Nan@@@Z 00000001800245b4     bcrypt_node.obj
 0002:0000a5c4       $unwind$?Execute@EncryptAsyncWorker@?A0x6ae9514c@@UEAAXXZ 00000001800245c4     bcrypt_node.obj
 0002:0000a5dc       $unwind$?HandleOKCallback@EncryptAsyncWorker@?A0x6ae9514c@@UEAAXXZ 00000001800245dc     bcrypt_node.obj
 0002:0000a5f0       $unwind$?Encrypt@?A0x6ae9514c@@YAXAEBV?$FunctionCallbackInfo@VValue@v8@@@Nan@@@Z 00000001800245f0     bcrypt_node.obj
 0002:0000a610       $chain$0$?Encrypt@?A0x6ae9514c@@YAXAEBV?$FunctionCallbackInfo@VValue@v8@@@Nan@@@Z 0000000180024610     bcrypt_node.obj
 0002:0000a624       $chain$1$?Encrypt@?A0x6ae9514c@@YAXAEBV?$FunctionCallbackInfo@VValue@v8@@@Nan@@@Z 0000000180024624     bcrypt_node.obj
 0002:0000a634       $unwind$?EncryptSync@?A0x6ae9514c@@YAXAEBV?$FunctionCallbackInfo@VValue@v8@@@Nan@@@Z 0000000180024634     bcrypt_node.obj
 0002:0000a650       $chain$0$?EncryptSync@?A0x6ae9514c@@YAXAEBV?$FunctionCallbackInfo@VValue@v8@@@Nan@@@Z 0000000180024650     bcrypt_node.obj
 0002:0000a664       $chain$1$?EncryptSync@?A0x6ae9514c@@YAXAEBV?$FunctionCallbackInfo@VValue@v8@@@Nan@@@Z 0000000180024664     bcrypt_node.obj
 0002:0000a674       $unwind$?Execute@CompareAsyncWorker@?A0x6ae9514c@@UEAAXXZ 0000000180024674     bcrypt_node.obj
 0002:0000a68c       $chain$0$?Execute@CompareAsyncWorker@?A0x6ae9514c@@UEAAXXZ 000000018002468c     bcrypt_node.obj
 0002:0000a6a0       $chain$1$?Execute@CompareAsyncWorker@?A0x6ae9514c@@UEAAXXZ 00000001800246a0     bcrypt_node.obj
 0002:0000a6b0       $unwind$?Compare@?A0x6ae9514c@@YAXAEBV?$FunctionCallbackInfo@VValue@v8@@@Nan@@@Z 00000001800246b0     bcrypt_node.obj
 0002:0000a6d0       $unwind$?CompareSync@?A0x6ae9514c@@YAXAEBV?$FunctionCallbackInfo@VValue@v8@@@Nan@@@Z 00000001800246d0     bcrypt_node.obj
 0002:0000a6ec       $chain$0$?CompareSync@?A0x6ae9514c@@YAXAEBV?$FunctionCallbackInfo@VValue@v8@@@Nan@@@Z 00000001800246ec     bcrypt_node.obj
 0002:0000a700       $chain$1$?CompareSync@?A0x6ae9514c@@YAXAEBV?$FunctionCallbackInfo@VValue@v8@@@Nan@@@Z 0000000180024700     bcrypt_node.obj
 0002:0000a710       $unwind$?GetRounds@?A0x6ae9514c@@YAXAEBV?$FunctionCallbackInfo@VValue@v8@@@Nan@@@Z 0000000180024710     bcrypt_node.obj
 0002:0000a728       $chain$0$?GetRounds@?A0x6ae9514c@@YAXAEBV?$FunctionCallbackInfo@VValue@v8@@@Nan@@@Z 0000000180024728     bcrypt_node.obj
 0002:0000a73c       $chain$1$?GetRounds@?A0x6ae9514c@@YAXAEBV?$FunctionCallbackInfo@VValue@v8@@@Nan@@@Z 000000018002473c     bcrypt_node.obj
 0002:0000a74c       $unwind$??0?$basic_string@DU?$char_traits@D@std@@V?$allocator@D@2@@std@@QEAA@AEBV01@@Z 000000018002474c     bcrypt_node.obj
 0002:0000a760       $unwind$?assign@?$basic_string@DU?$char_traits@D@std@@V?$allocator@D@2@@std@@QEAAAEAV12@QEBD_K@Z 0000000180024760     bcrypt_node.obj
 0002:0000a774       $chain$0$?assign@?$basic_string@DU?$char_traits@D@std@@V?$allocator@D@2@@std@@QEAAAEAV12@QEBD_K@Z 0000000180024774     bcrypt_node.obj
 0002:0000a788       $chain$3$?assign@?$basic_string@DU?$char_traits@D@std@@V?$allocator@D@2@@std@@QEAAAEAV12@QEBD_K@Z 0000000180024788     bcrypt_node.obj
 0002:0000a788       $chain$1$?assign@?$basic_string@DU?$char_traits@D@std@@V?$allocator@D@2@@std@@QEAAAEAV12@QEBD_K@Z 0000000180024788     bcrypt_node.obj
 0002:0000a798       $chain$2$?assign@?$basic_string@DU?$char_traits@D@std@@V?$allocator@D@2@@std@@QEAAAEAV12@QEBD_K@Z 0000000180024798     bcrypt_node.obj
 0002:0000a7ac       $unwind$__scrt_dllmain_uninitialize_c 00000001800247ac     LIBCMT:utility.obj
 0002:0000a7ac       $unwind$__vcrt_freefls     00000001800247ac     libvcruntime:per_thread_data.obj
 0002:0000a7ac       $unwind$__GSHandlerCheck   00000001800247ac     LIBCMT:gshandler.obj
 0002:0000a7ac       $unwind$__acrt_DownlevelLocaleNameToLCID 00000001800247ac     libucrt:lcidtoname_downlevel.obj
 0002:0000a7ac       $unwind$__acrt_release_locale_ref 00000001800247ac     libucrt:locale_refcounting.obj
 0002:0000a7ac       $unwind$__acrt_uninitialize_ptd 00000001800247ac     libucrt:per_thread_data.obj
 0002:0000a7ac       $unwind$__scrt_initialize_default_local_stdio_options 00000001800247ac     LIBCMT:default_local_stdio_options.obj
 0002:0000a7ac       $unwind$_set_error_mode    00000001800247ac     libucrt:set_error_mode.obj
 0002:0000a7ac       $unwind$__vcrt_uninitialize_critical 00000001800247ac     libvcruntime:initialization.obj
 0002:0000a7ac       $unwind$__vcrt_thread_attach 00000001800247ac     libvcruntime:initialization.obj
 0002:0000a7ac       $unwind$__vcrt_thread_detach 00000001800247ac     libvcruntime:initialization.obj
 0002:0000a7ac       $unwind$__scrt_dllmain_uninitialize_critical 00000001800247ac     LIBCMT:utility.obj
 0002:0000a7ac       $unwind$_isatty            00000001800247ac     libucrt:isatty.obj
 0002:0000a7ac       $unwind$?state_case_size@?$output_processor@_WV?$string_output_adapter@_W@__crt_stdio_output@@V?$standard_base@_WV?$string_output_adapter@_W@__crt_stdio_output@@@2@@__crt_stdio_output@@AEAA_NXZ 00000001800247ac     libucrt:output.obj
 0002:0000a7ac       $unwind$__scrt_acquire_startup_lock 00000001800247ac     LIBCMT:utility.obj
 0002:0000a7ac       $unwind$_invoke_watson     00000001800247ac     libucrt:invalid_parameter.obj
 0002:0000a7ac       $unwind$_set_errno_from_matherr 00000001800247ac     libucrt:fpexcept.obj
 0002:0000a7ac       $unwind$_statfp            00000001800247ac     libucrt:fpctrl.obj
 0002:0000a7ac       $unwind$__vcrt_uninitialize_ptd 00000001800247ac     libvcruntime:per_thread_data.obj
 0002:0000a7ac       $unwind$__dcrt_terminate_console_output 00000001800247ac     libucrt:initcon.obj
 0002:0000a7ac       $unwind$__scrt_dllmain_crt_thread_detach 00000001800247ac     LIBCMT:utility.obj
 0002:0000a7ac       $unwind$__acrt_initialize_heap 00000001800247ac     libucrt:heap_handle.obj
 0002:0000a7ac       $unwind$__acrt_initialize_ptd 00000001800247ac     libucrt:per_thread_data.obj
 0002:0000a7ac       $unwind$_msize_base        00000001800247ac     libucrt:msize.obj
 0002:0000a7ac       $unwind$?_Xlen@?$basic_string@DU?$char_traits@D@std@@V?$allocator@D@2@@std@@SAXXZ 00000001800247ac     bcrypt_node.obj
 0002:0000a7ac       $unwind$_purecall          00000001800247ac     libvcruntime:purevirt.obj
 0002:0000a7ac       $unwind$_stricmp           00000001800247ac     libucrt:stricmp.obj
 0002:0000a7ac       $unwind$__doserrno         00000001800247ac     libucrt:errno.obj
 0002:0000a7ac       $unwind$__acrt_uninitialize 00000001800247ac     libucrt:initialization.obj
 0002:0000a7ac       $unwind$__acrt_uninitialize_critical 00000001800247ac     libucrt:initialization.obj
 0002:0000a7ac       $unwind$_get_osfhandle     00000001800247ac     libucrt:osfinfo.obj
 0002:0000a7ac       $unwind$__pctype_func      00000001800247ac     libucrt:ctype.obj
 0002:0000a7ac       $unwind$__acrt_update_thread_multibyte_data 00000001800247ac     libucrt:mbctype.obj
 0002:0000a7ac       $unwind$_errno             00000001800247ac     libucrt:errno.obj
 0002:0000a7ac       $unwind$__acrt_thread_attach 00000001800247ac     libucrt:initialization.obj
 0002:0000a7ac       $unwind$__acrt_initialize_multibyte 00000001800247ac     libucrt:mbctype.obj
 0002:0000a7ac       $unwind$__acrt_thread_detach 00000001800247ac     libucrt:initialization.obj
 0002:0000a7ac       $unwind$?state_case_size@?$output_processor@DV?$string_output_adapter@D@__crt_stdio_output@@V?$standard_base@DV?$string_output_adapter@D@__crt_stdio_output@@@2@@__crt_stdio_output@@AEAA_NXZ 00000001800247ac     libucrt:output.obj
 0002:0000a7ac       $unwind$??$uninitialize_environment_internal@_W@@YAXAEAPEAPEA_W@Z 00000001800247ac     libucrt:environment_initialization.obj
 0002:0000a7ac       $unwind$?state_case_normal_tchar@?$output_processor@DV?$string_output_adapter@D@__crt_stdio_output@@V?$standard_base@DV?$string_output_adapter@D@__crt_stdio_output@@@2@@__crt_stdio_output@@AEAA_ND@Z 00000001800247ac     libucrt:output.obj
 0002:0000a7ac       $unwind$tolower            00000001800247ac     libucrt:tolower_toupper.obj
 0002:0000a7ac       $unwind$??$uninitialize_environment_internal@D@@YAXAEAPEAPEAD@Z 00000001800247ac     libucrt:environment_initialization.obj
 0002:0000a7ac       $unwind$initialize_c       00000001800247ac     libucrt:initialization.obj
 0002:0000a7ac       $unwind$?initialize_multibyte@@YAHXZ 00000001800247ac     libucrt:multibyte_initializer.obj
 0002:0000a7ac       $unwind$__report_rangecheckfailure 00000001800247ac     LIBCMT:gs_report.obj
 0002:0000a7ac       $unwind$uninitialize_environment 00000001800247ac     libucrt:initialization.obj
 0002:0000a7ac       $unwind$?DloadReleaseSectionWriteAccess@@YAXXZ 00000001800247ac     DelayImp:delayhlp.obj
 0002:0000a7ac       $unwind$__dcrt_uninitialize_environments_nolock 00000001800247ac     libucrt:environment_initialization.obj
 0002:0000a7ac       $unwind$?state_case_size@?$output_processor@_WV?$stream_output_adapter@_W@__crt_stdio_output@@V?$standard_base@_WV?$stream_output_adapter@_W@__crt_stdio_output@@@2@@__crt_stdio_output@@AEAA_NXZ 00000001800247ac     libucrt:output.obj
 0002:0000a7ac       $unwind$?dllmain_crt_dispatch@@YAHQEAUHINSTANCE__@@KQEAX@Z 00000001800247ac     LIBCMT:dll_dllmain.obj
 0002:0000a7ac       $unwind$uninitialize_allocated_io_buffers 00000001800247ac     libucrt:initialization.obj
 0002:0000a7ac       $unwind$__vcrt_uninitialize 00000001800247ac     libvcruntime:initialization.obj
 0002:0000a7ac       $unwind$__vcrt_initialize  00000001800247ac     libvcruntime:initialization.obj
 0002:0000a7ac       $unwind$__acrt_initialize_command_line 00000001800247ac     libucrt:argv_data.obj
 0002:0000a7ac       $unwind$__vcrt_initialize_ptd 00000001800247ac     libvcruntime:per_thread_data.obj
 0002:0000a7ac       $unwind$_fileno            00000001800247ac     libucrt:fileno.obj
 0002:0000a7ac       $unwind$abort              00000001800247ac     libucrt:abort.obj
 0002:0000a7ac       $unwind$__scrt_dllmain_before_initialize_c 00000001800247ac     LIBCMT:utility.obj
 0002:0000a7ac       $unwind$__scrt_dllmain_after_initialize_c 00000001800247ac     LIBCMT:utility.obj
 0002:0000a7ac       $unwind$__scrt_dllmain_crt_thread_attach 00000001800247ac     LIBCMT:utility.obj
 0002:0000a7b4       xdata                      00000001800247b4     node:node.exe
 0002:0000a7c0       $xdatasym                  00000001800247c0     LIBCMT:amdsecgs.obj
 0002:0000a7c4       $unwind$?dllmain_crt_process_attach@@YAHQEAUHINSTANCE__@@QEAX@Z 00000001800247c4     LIBCMT:dll_dllmain.obj
 0002:0000a800       $unwind$?fin$0@?0???$?RV<lambda_410d79af7f07d98d83a3f525b3859a53>@@AEAV<lambda_3e16ef9562a7dcce91392c22ab16ea36>@@V<lambda_38119f0e861e05405d8a144b9b982f0a>@@@?$__crt_seh_guarded_call@X@@QEAAX$$QEAV<lambda_410d79af7f07d98d83a3f525b3859a53>@@AEAV<lambda_3e16ef9562a7dcce91392c22ab16ea36>@@$$QEAV<lambda_38119f0e861e05405d8a144b9b982f0a>@@@Z@4HA 0000000180024800     libucrt:wsetlocale.obj
 0002:0000a800       $unwind$?fin$0@?0???$?RV<lambda_84ec643ea9557e2f7dc01bb0e9624395>@@AEAV<lambda_ca71763b3c0644891230e4f79ea54fa6>@@V<lambda_439a761618c59b0600e24586724d733b>@@@?$__crt_seh_guarded_call@H@@QEAAH$$QEAV<lambda_84ec643ea9557e2f7dc01bb0e9624395>@@AEAV<lambda_ca71763b3c0644891230e4f79ea54fa6>@@$$QEAV<lambda_439a761618c59b0600e24586724d733b>@@@Z@4HA 0000000180024800     libucrt:setvbuf.obj
 0002:0000a800       $unwind$?fin$0@?0???$?RV<lambda_0d412022a4b28cc8a401ea49574e8ae6>@@AEAV<lambda_a775ed57af18ba8e4d5dc780aa9068fe>@@V<lambda_975a71a6baa488a08f4e15f6b0339b9e>@@@?$__crt_seh_guarded_call@H@@QEAAH$$QEAV<lambda_0d412022a4b28cc8a401ea49574e8ae6>@@AEAV<lambda_a775ed57af18ba8e4d5dc780aa9068fe>@@$$QEAV<lambda_975a71a6baa488a08f4e15f6b0339b9e>@@@Z@4HA 0000000180024800     libucrt:output.obj
 0002:0000a800       $unwind$__acrt_initialize_lowio$fin$0 0000000180024800     libucrt:ioinit.obj
 0002:0000a800       $unwind$?fin$0@?0???$?RV<lambda_a37b2b86f63e897a80ea819b0eb08c01>@@AEAV<lambda_38ce7e780aa69e748d6df282ebc68efe>@@V<lambda_99fb1378e971ab6e7edea83e3a7a83a2>@@@?$__crt_seh_guarded_call@H@@QEAAH$$QEAV<lambda_a37b2b86f63e897a80ea819b0eb08c01>@@AEAV<lambda_38ce7e780aa69e748d6df282ebc68efe>@@$$QEAV<lambda_99fb1378e971ab6e7edea83e3a7a83a2>@@@Z@4HA 0000000180024800     libucrt:commit.obj
 0002:0000a800       $unwind$?fin$0@?0???$common_lseek@_J@@YA_JH_JH@Z@4HA 0000000180024800     libucrt:lseek.obj
 0002:0000a800       $unwind$__DestructExceptionObject$filt$0 0000000180024800     libvcruntime:ehhelpers.obj
 0002:0000a800       $unwind$fclose$fin$0       0000000180024800     libucrt:fclose.obj
 0002:0000a800       $unwind$_IsNonwritableInCurrentImage$filt$0 0000000180024800     LIBCMT:pesect.obj
 0002:0000a800       $unwind$?fin$0@?0???$?RV<lambda_d80eeec6fff315bfe5c115232f3240e3>@@AEAV<lambda_6e4b09c48022b2350581041d5f6b0c4c>@@V<lambda_2358e3775559c9db80273638284d5e45>@@@?$__crt_seh_guarded_call@X@@QEAAX$$QEAV<lambda_d80eeec6fff315bfe5c115232f3240e3>@@AEAV<lambda_6e4b09c48022b2350581041d5f6b0c4c>@@$$QEAV<lambda_2358e3775559c9db80273638284d5e45>@@@Z@4HA 0000000180024800     libucrt:exit.obj
 0002:0000a800       $unwind$_write$fin$0       0000000180024800     libucrt:write.obj
 0002:0000a800       $unwind$?fin$0@?0???$?RV<lambda_efdfa57d1f175319df784efa44bb7b81>@@AEAV<lambda_5f0a4c1567f8adc6734073e5d1e1b35c>@@V<lambda_2e8a7d3640ea6ccb4c2413664c2db6fd>@@@?$__crt_seh_guarded_call@X@@QEAAX$$QEAV<lambda_efdfa57d1f175319df784efa44bb7b81>@@AEAV<lambda_5f0a4c1567f8adc6734073e5d1e1b35c>@@$$QEAV<lambda_2e8a7d3640ea6ccb4c2413664c2db6fd>@@@Z@4HA 0000000180024800     libucrt:mbctype.obj
 0002:0000a800       $unwind$?filt$0@?0???R<lambda_6e4b09c48022b2350581041d5f6b0c4c>@@QEBA@XZ@4HA 0000000180024800     libucrt:exit.obj
 0002:0000a800       $unwind$?fin$0@?0???$?RV<lambda_7777bce6b2f8c936911f934f8298dc43>@@AEAV<lambda_f03950bc5685219e0bcd2087efbe011e>@@V<lambda_3883c3dff614d5e0c5f61bb1ac94921c>@@@?$__crt_seh_guarded_call@H@@QEAAH$$QEAV<lambda_7777bce6b2f8c936911f934f8298dc43>@@AEAV<lambda_f03950bc5685219e0bcd2087efbe011e>@@$$QEAV<lambda_3883c3dff614d5e0c5f61bb1ac94921c>@@@Z@4HA 0000000180024800     libucrt:onexit.obj
 0002:0000a800       $unwind$_fcloseall$fin$0   0000000180024800     libucrt:closeall.obj
 0002:0000a800       $unwind$__acrt_update_thread_locale_data$fin$0 0000000180024800     libucrt:locale_refcounting.obj
 0002:0000a800       $unwind$raise$fin$0        0000000180024800     libucrt:signal.obj
 0002:0000a800       $unwind$?fin$0@?0???$?RV<lambda_751a882b2c74d4b022dec766aa51a29a>@@AEAV<lambda_628dfdc04ba53c8bfc02c9951375f3f5>@@V<lambda_f6c7be5f7998530c34de24c7437d6b54>@@@?$__crt_seh_guarded_call@H@@QEAAH$$QEAV<lambda_751a882b2c74d4b022dec766aa51a29a>@@AEAV<lambda_628dfdc04ba53c8bfc02c9951375f3f5>@@$$QEAV<lambda_f6c7be5f7998530c34de24c7437d6b54>@@@Z@4HA 0000000180024800     libucrt:close.obj
 0002:0000a800       $unwind$?fin$0@?0???$?RV<lambda_2d41944a1d46af3157314b8a01080d33>@@AEAV<lambda_8f455de75cd7d7f24b4096f044d8b9e6>@@V<lambda_aa500f224e6afead328df44964fe2772>@@@?$__crt_seh_guarded_call@X@@QEAAX$$QEAV<lambda_2d41944a1d46af3157314b8a01080d33>@@AEAV<lambda_8f455de75cd7d7f24b4096f044d8b9e6>@@$$QEAV<lambda_aa500f224e6afead328df44964fe2772>@@@Z@4HA 0000000180024800     libucrt:per_thread_data.obj
 0002:0000a800       $unwind$?fin$0@?0??update_thread_multibyte_data_internal@@YAPEAU__crt_multibyte_data@@QEAU__acrt_ptd@@QEAPEAU1@@Z@4HA 0000000180024800     libucrt:mbctype.obj
 0002:0000a800       $unwind$?fin$0@?0??dllmain_crt_process_detach@@YAH_N@Z@4HA 0000000180024800     LIBCMT:dll_dllmain.obj
 0002:0000a800       $unwind$_ctrlfp$filt$0     0000000180024800     libucrt:fpctrl.obj
 0002:0000a800       $unwind$?fin$0@?0???$?RV<lambda_842d9ff0dc9ef11c61343bbaebe7f885>@@AEAV<lambda_c5860995281e5c4ce005b3de8f5874ee>@@V<lambda_d90129c13df834fdcbf8d2b88dafcf2d>@@@?$__crt_seh_guarded_call@X@@QEAAX$$QEAV<lambda_842d9ff0dc9ef11c61343bbaebe7f885>@@AEAV<lambda_c5860995281e5c4ce005b3de8f5874ee>@@$$QEAV<lambda_d90129c13df834fdcbf8d2b88dafcf2d>@@@Z@4HA 0000000180024800     libucrt:fflush.obj
 0002:0000a800       $unwind$?fin$0@?0???$?RV<lambda_0ae27a3a962d80f24befdcbee591983d>@@AEAV<lambda_8d0ee55de4b1038c4002e0adecdf1839>@@V<lambda_dc504788e8f1664fe9b84e20bfb512f2>@@@?$__crt_seh_guarded_call@X@@QEAAX$$QEAV<lambda_0ae27a3a962d80f24befdcbee591983d>@@AEAV<lambda_8d0ee55de4b1038c4002e0adecdf1839>@@$$QEAV<lambda_dc504788e8f1664fe9b84e20bfb512f2>@@@Z@4HA 0000000180024800     libucrt:per_thread_data.obj
 0002:0000a800       $unwind$__acrt_lowio_ensure_fh_exists$fin$0 0000000180024800     libucrt:osfinfo.obj
 0002:0000a800       $unwind$?fin$0@?0???$?RV<lambda_450d765d439847d4c735a33c368b5fc0>@@AEAV<lambda_44731a7d0e6d81c3e6aa82d741081786>@@V<lambda_601a2a7da3b7a96e9554ac7215c4b07c>@@@?$__crt_seh_guarded_call@P6AXH@Z@@QEAAP6AXH@Z$$QEAV<lambda_450d765d439847d4c735a33c368b5fc0>@@AEAV<lambda_44731a7d0e6d81c3e6aa82d741081786>@@$$QEAV<lambda_601a2a7da3b7a96e9554ac7215c4b07c>@@@Z@4HA 0000000180024800     libucrt:signal.obj
 0002:0000a800       $unwind$?fin$0@?0???$?RV<lambda_c376a267cfb53b6959b3b692ec76b120>@@AEAV<lambda_9a32fed5bf61b6b509b2d3f6003082a1>@@V<lambda_572fbb9fa0ab338edf41edfd4b5fcc8d>@@@?$__crt_seh_guarded_call@H@@QEAAH$$QEAV<lambda_c376a267cfb53b6959b3b692ec76b120>@@AEAV<lambda_9a32fed5bf61b6b509b2d3f6003082a1>@@$$QEAV<lambda_572fbb9fa0ab338edf41edfd4b5fcc8d>@@@Z@4HA 0000000180024800     libucrt:fflush.obj
 0002:0000a800       $unwind$?fin$0@?0???$?RV<lambda_886d6c58226a84441f68b9f2b8217b83>@@AEAV<lambda_ab61a845afdef5b7c387490eaf3616ee>@@V<lambda_f7f22ab5edc0698d5f6905b0d3f44752>@@@?$__crt_seh_guarded_call@X@@QEAAX$$QEAV<lambda_886d6c58226a84441f68b9f2b8217b83>@@AEAV<lambda_ab61a845afdef5b7c387490eaf3616ee>@@$$QEAV<lambda_f7f22ab5edc0698d5f6905b0d3f44752>@@@Z@4HA 0000000180024800     libucrt:fflush.obj
 0002:0000a800       $unwind$?fin$0@?0???$?RV<lambda_f2e299630e499de9f9a165e60fcd3db5>@@AEAV<lambda_2ae9d31cdba2644fcbeaf08da7c24588>@@V<lambda_40d01ff24d0e7b3814fdbdcee8eab3c7>@@@?$__crt_seh_guarded_call@X@@QEAAX$$QEAV<lambda_f2e299630e499de9f9a165e60fcd3db5>@@AEAV<lambda_2ae9d31cdba2644fcbeaf08da7c24588>@@$$QEAV<lambda_40d01ff24d0e7b3814fdbdcee8eab3c7>@@@Z@4HA 0000000180024800     libucrt:per_thread_data.obj
 0002:0000a800       $unwind$?fin$0@?0???$?RV<lambda_aa87e3671a710a21b5dc78c0bdf72e11>@@AEAV<lambda_92619d2358a28f41a33ba319515a20b9>@@V<lambda_6992ecaafeb10aed2b74cb1fae11a551>@@@?$__crt_seh_guarded_call@X@@QEAAX$$QEAV<lambda_aa87e3671a710a21b5dc78c0bdf72e11>@@AEAV<lambda_92619d2358a28f41a33ba319515a20b9>@@$$QEAV<lambda_6992ecaafeb10aed2b74cb1fae11a551>@@@Z@4HA 0000000180024800     libucrt:per_thread_data.obj
 0002:0000a800       $unwind$_query_new_handler$fin$0 0000000180024800     libucrt:new_handler.obj
 0002:0000a800       $unwind$?fin$0@?0??dllmain_crt_process_attach@@YAHQEAUHINSTANCE__@@QEAX@Z@4HA 0000000180024800     LIBCMT:dll_dllmain.obj
 0002:0000a808       $unwind$?dllmain_crt_process_detach@@YAH_N@Z 0000000180024808     LIBCMT:dll_dllmain.obj
 0002:0000a840       $unwind$?dllmain_dispatch@@YAHQEAUHINSTANCE__@@KQEAX@Z 0000000180024840     LIBCMT:dll_dllmain.obj
 0002:0000a868       $unwind$?filt$0@?0??dllmain_dispatch@@YAHQEAUHINSTANCE__@@KQEAX@Z@4HA 0000000180024868     LIBCMT:dll_dllmain.obj
 0002:0000a870       $unwind$?type_case_Z@?$output_processor@_WV?$stream_output_adapter@_W@__crt_stdio_output@@V?$standard_base@_WV?$stream_output_adapter@_W@__crt_stdio_output@@@2@@__crt_stdio_output@@AEAA_NXZ 0000000180024870     libucrt:output.obj
 0002:0000a870       $unwind$__acrt_InitializeCriticalSectionEx 0000000180024870     libucrt:winapi_thunks.obj
 0002:0000a870       $unwind$??$common_lseek_nolock@_J@@YA_JH_JH@Z 0000000180024870     libucrt:lseek.obj
 0002:0000a870       $unwind$?type_case_s@?$output_processor@_WV?$stream_output_adapter@_W@__crt_stdio_output@@V?$standard_base@_WV?$stream_output_adapter@_W@__crt_stdio_output@@@2@@__crt_stdio_output@@AEAA_NXZ 0000000180024870     libucrt:output.obj
 0002:0000a870       $unwind$?type_case_n@?$output_processor@DV?$string_output_adapter@D@__crt_stdio_output@@V?$standard_base@DV?$string_output_adapter@D@__crt_stdio_output@@@2@@__crt_stdio_output@@AEAA_NXZ 0000000180024870     libucrt:output.obj
 0002:0000a870       $unwind$__acrt_stdio_flush_nolock 0000000180024870     libucrt:fflush.obj
 0002:0000a870       $unwind$?type_case_n@?$output_processor@_WV?$string_output_adapter@_W@__crt_stdio_output@@V?$standard_base@_WV?$string_output_adapter@_W@__crt_stdio_output@@@2@@__crt_stdio_output@@AEAA_NXZ 0000000180024870     libucrt:output.obj
 0002:0000a870       $unwind$__acrt_stdio_flush_and_write_narrow_nolock 0000000180024870     libucrt:_flsbuf.obj
 0002:0000a870       $unwind$?free_crt_array_internal@@YAXQEAPEBX_K@Z 0000000180024870     libucrt:inittime.obj
 0002:0000a870       $unwind$__vcrt_InitializeCriticalSectionEx 0000000180024870     libvcruntime:winapi_downlevel.obj
 0002:0000a870       $unwind$__acrt_stdio_flush_and_write_wide_nolock 0000000180024870     libucrt:_flsbuf.obj
 0002:0000a870       $unwind$memcpy_s           0000000180024870     libucrt:cfout.obj
 0002:0000a870       $unwind$_DllMainCRTStartup 0000000180024870     LIBCMT:dll_dllmain.obj
 0002:0000a870       $unwind$?type_case_n@?$output_processor@_WV?$stream_output_adapter@_W@__crt_stdio_output@@V?$standard_base@_WV?$stream_output_adapter@_W@__crt_stdio_output@@@2@@__crt_stdio_output@@AEAA_NXZ 0000000180024870     libucrt:output.obj
 0002:0000a870       $unwind$?type_case_Z@?$output_processor@_WV?$string_output_adapter@_W@__crt_stdio_output@@V?$standard_base@_WV?$string_output_adapter@_W@__crt_stdio_output@@@2@@__crt_stdio_output@@AEAA_NXZ 0000000180024870     libucrt:output.obj
 0002:0000a870       $unwind$__acrt_execute_initializers 0000000180024870     libucrt:shared_initialization.obj
 0002:0000a870       $unwind$?type_case_s@?$output_processor@_WV?$string_output_adapter@_W@__crt_stdio_output@@V?$standard_base@_WV?$string_output_adapter@_W@__crt_stdio_output@@@2@@__crt_stdio_output@@AEAA_NXZ 0000000180024870     libucrt:output.obj
 0002:0000a870       $unwind$__vcrt_getptd_noexit 0000000180024870     libvcruntime:per_thread_data.obj
 0002:0000a870       $unwind$_exception_enabled 0000000180024870     libucrt:libm_error.obj
 0002:0000a880       $unwind$__report_securityfailure 0000000180024880     LIBCMT:gs_report.obj
 0002:0000a888       $unwind$__report_gsfailure 0000000180024888     LIBCMT:gs_report.obj
 0002:0000a890       $unwind$capture_current_context 0000000180024890     LIBCMT:gs_report.obj
 0002:0000a89c       $unwind$capture_previous_context 000000018002489c     LIBCMT:gs_report.obj
 0002:0000a8a8       $unwind$?_Xlength_error@std@@YAXPEBD@Z 00000001800248a8     libcpmt:xthrow.obj
 0002:0000a8a8       $unwind$?__scrt_throw_std_bad_alloc@@YAXXZ 00000001800248a8     LIBCMT:throw_bad_alloc.obj
 0002:0000a8a8       $unwind$_raise_exc         00000001800248a8     libucrt:fpexcept.obj
 0002:0000a8a8       $unwind$?__scrt_throw_std_bad_array_new_length@@YAXXZ 00000001800248a8     LIBCMT:throw_bad_alloc.obj
 0002:0000a8b0       $unwind$__security_init_cookie 00000001800248b0     LIBCMT:gs_support.obj
 0002:0000a8bc       $unwind$__scrt_is_nonwritable_in_current_image 00000001800248bc     LIBCMT:utility.obj
 0002:0000a8dc       $unwind$__scrt_is_nonwritable_in_current_image$filt$0 00000001800248dc     LIBCMT:utility.obj
 0002:0000a8e4       $unwind$__scrt_initialize_onexit_tables 00000001800248e4     LIBCMT:utility.obj
 0002:0000a8e4       $unwind$_isleadbyte_l      00000001800248e4     libucrt:_wctype.obj
 0002:0000a8e4       $unwind$?getSystemCP@@YAHH@Z 00000001800248e4     libucrt:mbctype.obj
 0002:0000a8e4       $unwind$isdigit            00000001800248e4     libucrt:_ctype.obj
 0002:0000a8e4       $unwind$__dcrt_lowio_ensure_console_output_initialized 00000001800248e4     libucrt:initcon.obj
 0002:0000a8ec       $unwind$__acrt_lowio_create_handle_array 00000001800248ec     libucrt:osfinfo.obj
 0002:0000a8ec       $unwind$__acrt_show_wide_message_box 00000001800248ec     libucrt:crtmbox.obj
 0002:0000a8ec       $unwind$__acrt_free_locale 00000001800248ec     libucrt:locale_refcounting.obj
 0002:0000a8ec       $unwind$??$ensure_buffer_is_big_enough@D@formatting_buffer@__crt_stdio_output@@QEAA_N_K@Z 00000001800248ec     libucrt:output.obj
 0002:0000a8ec       $unwind$_wassert           00000001800248ec     libucrt:assert.obj
 0002:0000a8ec       $unwind$_initterm          00000001800248ec     libucrt:initterm.obj
 0002:0000a8ec       $unwind$__scrt_dllmain_exception_filter 00000001800248ec     LIBCMT:utility.obj
 0002:0000a8ec       $unwind$??$ensure_buffer_is_big_enough@_W@formatting_buffer@__crt_stdio_output@@QEAA_N_K@Z 00000001800248ec     libucrt:output.obj
 0002:0000a8ec       $unwind$?setSBCS@@YAXPEAU__crt_multibyte_data@@@Z 00000001800248ec     libucrt:mbctype.obj
 0002:0000a8ec       $unwind$_recalloc_base     00000001800248ec     libucrt:recalloc.obj
 0002:0000a8ec       $unwind$_seh_filter_exe    00000001800248ec     libucrt:exception_filter.obj
 0002:0000a900       $unwind$__scrt_fastfail    0000000180024900     LIBCMT:utility_desktop.obj
 0002:0000a910       $unwind$__isa_available_init 0000000180024910     LIBCMT:cpu_disp.obj
 0002:0000a920       $xdatasym                  0000000180024920     LIBCMT:guard_dispatch.obj
 0002:0000a924       $unwind$??$common_xtox_s@K_W@@YAHKQEA_W_KI_N@Z 0000000180024924     libucrt:xtoa.obj
 0002:0000a924       $unwind$??0length_error@std@@QEAA@PEBD@Z 0000000180024924     libcpmt:xthrow.obj
 0002:0000a92c       $unwind$__C_specific_handler 000000018002492c     libvcruntime:riscchandler.obj
 0002:0000a948       $unwind$_free_osfhnd       0000000180024948     libucrt:osfinfo.obj
 0002:0000a948       $unwind$__std_exception_copy 0000000180024948     libvcruntime:std_exception.obj
 0002:0000a948       $unwind$?initialize_stdio_handles_nolock@@YAXXZ 0000000180024948     libucrt:ioinit.obj
 0002:0000a95c       $unwind$_CxxThrowException 000000018002495c     libvcruntime:throw.obj
 0002:0000a970       $xdatasym                  0000000180024970     libvcruntime:memset.obj
 0002:0000a980       $xdatasym                  0000000180024980     libvcruntime:notify.obj
 0002:0000a98c       $unwind$__DestructExceptionObject 000000018002498c     libvcruntime:ehhelpers.obj
 0002:0000a9ac       $unwind$__acrt_initialize_winapi_thunks 00000001800249ac     libucrt:winapi_thunks.obj
 0002:0000a9ac       $unwind$__vcrt_initialize_winapi_thunks 00000001800249ac     libvcruntime:winapi_downlevel.obj
 0002:0000a9b4       $unwind$__vcrt_uninitialize_winapi_thunks 00000001800249b4     libvcruntime:winapi_downlevel.obj
 0002:0000a9b4       $unwind$__acrt_stdio_end_temporary_buffering_nolock 00000001800249b4     libucrt:_sftbuf.obj
 0002:0000a9bc       $unwind$?try_get_function@@YAPEAXW4function_id@?A0x391cf84c@@QEBDQEBW4module_id@2@2@Z 00000001800249bc     libucrt:winapi_thunks.obj
 0002:0000a9bc       $unwind$??R<lambda_f03950bc5685219e0bcd2087efbe011e>@@QEBAHXZ 00000001800249bc     libucrt:onexit.obj
 0002:0000a9bc       $unwind$?try_get_function@@YAPEAXW4function_id@?A0x14c33c87@@QEBDQEBW4module_id@2@2@Z 00000001800249bc     libvcruntime:winapi_downlevel.obj
 0002:0000a9d8       $xdatasym                  00000001800249d8     libvcruntime:memcpy.obj
 0002:0000a9e8       $xdatasym                  00000001800249e8     libvcruntime:handlers.obj
 0002:0000a9f8       $unwind$__stdio_common_vfwprintf 00000001800249f8     libucrt:output.obj
 0002:0000aa00       $unwind$??$common_vsprintf@Vstandard_base@__crt_stdio_output@@D@@YAH_KQEAD0QEBDQEAU__crt_locale_pointers@@1@Z 0000000180024a00     libucrt:output.obj
 0002:0000aa00       $unwind$??$common_vsprintf@Vstandard_base@__crt_stdio_output@@_W@@YAH_KQEA_W0QEB_WQEAU__crt_locale_pointers@@QEAD@Z 0000000180024a00     libucrt:output.obj
 0002:0000aa20       $unwind$?write_string_impl@?$output_adapter_common@_WV?$stream_output_adapter@_W@__crt_stdio_output@@@__crt_stdio_output@@IEBAXQEB_WHQEAHAEAV__crt_deferred_errno_cache@@@Z 0000000180024a20     libucrt:output.obj
 0002:0000aa20       $unwind$??$parse_command_line@D@@YAXPEADPEAPEAD0PEA_K2@Z 0000000180024a20     libucrt:argv_parsing.obj
 0002:0000aa3c       $unwind$__acrt_initialize_stdio 0000000180024a3c     libucrt:_file.obj
 0002:0000aa3c       $unwind$?process@?$output_processor@_WV?$stream_output_adapter@_W@__crt_stdio_output@@V?$standard_base@_WV?$stream_output_adapter@_W@__crt_stdio_output@@@2@@__crt_stdio_output@@QEAAHXZ 0000000180024a3c     libucrt:output.obj
 0002:0000aa3c       $unwind$?process@?$output_processor@_WV?$string_output_adapter@_W@__crt_stdio_output@@V?$standard_base@_WV?$string_output_adapter@_W@__crt_stdio_output@@@2@@__crt_stdio_output@@QEAAHXZ 0000000180024a3c     libucrt:output.obj
 0002:0000aa54       $unwind$?parse_int_from_format_string@?$output_processor@_WV?$stream_output_adapter@_W@__crt_stdio_output@@V?$standard_base@_WV?$stream_output_adapter@_W@__crt_stdio_output@@@2@@__crt_stdio_output@@AEAA_NQEAH@Z 0000000180024a54     libucrt:output.obj
 0002:0000aa54       $unwind$?parse_int_from_format_string@?$output_processor@_WV?$string_output_adapter@_W@__crt_stdio_output@@V?$standard_base@_WV?$string_output_adapter@_W@__crt_stdio_output@@@2@@__crt_stdio_output@@AEAA_NQEAH@Z 0000000180024a54     libucrt:output.obj
 0002:0000aa68       $unwind$?state_case_type@?$output_processor@_WV?$stream_output_adapter@_W@__crt_stdio_output@@V?$standard_base@_WV?$stream_output_adapter@_W@__crt_stdio_output@@@2@@__crt_stdio_output@@AEAA_NXZ 0000000180024a68     libucrt:output.obj
 0002:0000aa88       $unwind$?type_case_c_tchar@?$output_processor@_WV?$string_output_adapter@_W@__crt_stdio_output@@V?$standard_base@_WV?$string_output_adapter@_W@__crt_stdio_output@@@2@@__crt_stdio_output@@AEAA_N_W@Z 0000000180024a88     libucrt:output.obj
 0002:0000aa88       $unwind$?type_case_c_tchar@?$output_processor@_WV?$stream_output_adapter@_W@__crt_stdio_output@@V?$standard_base@_WV?$stream_output_adapter@_W@__crt_stdio_output@@@2@@__crt_stdio_output@@AEAA_N_W@Z 0000000180024a88     libucrt:output.obj
 0002:0000aa88       $unwind$??R<lambda_ca71763b3c0644891230e4f79ea54fa6>@@QEBAHXZ 0000000180024a88     libucrt:setvbuf.obj
 0002:0000aa98       $unwind$?type_case_a@?$output_processor@_WV?$stream_output_adapter@_W@__crt_stdio_output@@V?$standard_base@_WV?$stream_output_adapter@_W@__crt_stdio_output@@@2@@__crt_stdio_output@@AEAA_NXZ 0000000180024a98     libucrt:output.obj
 0002:0000aa98       $unwind$?type_case_a@?$output_processor@_WV?$string_output_adapter@_W@__crt_stdio_output@@V?$standard_base@_WV?$string_output_adapter@_W@__crt_stdio_output@@@2@@__crt_stdio_output@@AEAA_NXZ 0000000180024a98     libucrt:output.obj
 0002:0000aaa8       $unwind$?type_case_integer@?$output_processor@_WV?$string_output_adapter@_W@__crt_stdio_output@@V?$standard_base@_WV?$string_output_adapter@_W@__crt_stdio_output@@@2@@__crt_stdio_output@@AEAA_NI_N@Z 0000000180024aa8     libucrt:output.obj
 0002:0000aaa8       $unwind$?type_case_integer@?$output_processor@DV?$string_output_adapter@D@__crt_stdio_output@@V?$standard_base@DV?$string_output_adapter@D@__crt_stdio_output@@@2@@__crt_stdio_output@@AEAA_NI_N@Z 0000000180024aa8     libucrt:output.obj
 0002:0000aaa8       $unwind$?type_case_integer@?$output_processor@_WV?$stream_output_adapter@_W@__crt_stdio_output@@V?$standard_base@_WV?$stream_output_adapter@_W@__crt_stdio_output@@@2@@__crt_stdio_output@@AEAA_NI_N@Z 0000000180024aa8     libucrt:output.obj
 0002:0000aac0       $unwind$?write_stored_string_tchar@?$output_processor@_WV?$stream_output_adapter@_W@__crt_stdio_output@@V?$standard_base@_WV?$stream_output_adapter@_W@__crt_stdio_output@@@2@@__crt_stdio_output@@AEAA_N_W@Z 0000000180024ac0     libucrt:output.obj
 0002:0000aad4       $unwind$??R<lambda_a775ed57af18ba8e4d5dc780aa9068fe>@@QEBAHXZ 0000000180024ad4     libucrt:output.obj
 0002:0000aaf4       $unwind$??$write_multiple_characters@V?$stream_output_adapter@_W@__crt_stdio_output@@D@__crt_stdio_output@@YAXAEBV?$stream_output_adapter@_W@0@DHQEAH@Z 0000000180024af4     libucrt:output.obj
 0002:0000aaf4       $unwind$?write_string@?$string_output_adapter@D@__crt_stdio_output@@QEBAXQEBDHQEAHAEAV__crt_deferred_errno_cache@@@Z 0000000180024af4     libucrt:output.obj
 0002:0000ab0c       $unwind$?process@?$output_processor@DV?$string_output_adapter@D@__crt_stdio_output@@V?$standard_base@DV?$string_output_adapter@D@__crt_stdio_output@@@2@@__crt_stdio_output@@QEAAHXZ 0000000180024b0c     libucrt:output.obj
 0002:0000ab1c       $unwind$?parse_int_from_format_string@?$output_processor@DV?$string_output_adapter@D@__crt_stdio_output@@V?$standard_base@DV?$string_output_adapter@D@__crt_stdio_output@@@2@@__crt_stdio_output@@AEAA_NQEAH@Z 0000000180024b1c     libucrt:output.obj
 0002:0000ab30       $unwind$?state_case_type@?$output_processor@DV?$string_output_adapter@D@__crt_stdio_output@@V?$standard_base@DV?$string_output_adapter@D@__crt_stdio_output@@@2@@__crt_stdio_output@@AEAA_NXZ 0000000180024b30     libucrt:output.obj
 0002:0000ab48       $unwind$?type_case_a@?$output_processor@DV?$string_output_adapter@D@__crt_stdio_output@@V?$standard_base@DV?$string_output_adapter@D@__crt_stdio_output@@@2@@__crt_stdio_output@@AEAA_NXZ 0000000180024b48     libucrt:output.obj
 0002:0000ab54       $unwind$?write_stored_string_tchar@?$output_processor@DV?$string_output_adapter@D@__crt_stdio_output@@V?$standard_base@DV?$string_output_adapter@D@__crt_stdio_output@@@2@@__crt_stdio_output@@AEAA_ND@Z 0000000180024b54     libucrt:output.obj
 0002:0000ab6c       $unwind$?write_string@?$string_output_adapter@_W@__crt_stdio_output@@QEBAXQEB_WHQEAHAEAV__crt_deferred_errno_cache@@@Z 0000000180024b6c     libucrt:output.obj
 0002:0000ab84       $unwind$?state_case_type@?$output_processor@_WV?$string_output_adapter@_W@__crt_stdio_output@@V?$standard_base@_WV?$string_output_adapter@_W@__crt_stdio_output@@@2@@__crt_stdio_output@@AEAA_NXZ 0000000180024b84     libucrt:output.obj
 0002:0000aba8       $unwind$?write_stored_string_tchar@?$output_processor@_WV?$string_output_adapter@_W@__crt_stdio_output@@V?$standard_base@_WV?$string_output_adapter@_W@__crt_stdio_output@@@2@@__crt_stdio_output@@AEAA_N_W@Z 0000000180024ba8     libucrt:output.obj
 0002:0000abbc       $unwind$??$write_multiple_characters@V?$string_output_adapter@_W@__crt_stdio_output@@D@__crt_stdio_output@@YAXAEBV?$string_output_adapter@_W@0@DHQEAH@Z 0000000180024bbc     libucrt:output.obj
 0002:0000abc8       $unwind$??$type_case_integer_parse_into_buffer@_K@?$output_processor@_WV?$stream_output_adapter@_W@__crt_stdio_output@@V?$standard_base@_WV?$stream_output_adapter@_W@__crt_stdio_output@@@2@@__crt_stdio_output@@AEAAX_KI_N@Z 0000000180024bc8     libucrt:output.obj
 0002:0000abc8       $unwind$??$type_case_integer_parse_into_buffer@I@?$output_processor@DV?$string_output_adapter@D@__crt_stdio_output@@V?$standard_base@DV?$string_output_adapter@D@__crt_stdio_output@@@2@@__crt_stdio_output@@AEAAXII_N@Z 0000000180024bc8     libucrt:output.obj
 0002:0000abc8       $unwind$??$write_multiple_characters@V?$string_output_adapter@D@__crt_stdio_output@@D@__crt_stdio_output@@YAXAEBV?$string_output_adapter@D@0@DHQEAH@Z 0000000180024bc8     libucrt:output.obj
 0002:0000abc8       $unwind$??$type_case_integer_parse_into_buffer@_K@?$output_processor@DV?$string_output_adapter@D@__crt_stdio_output@@V?$standard_base@DV?$string_output_adapter@D@__crt_stdio_output@@@2@@__crt_stdio_output@@AEAAX_KI_N@Z 0000000180024bc8     libucrt:output.obj
 0002:0000abc8       $unwind$??$type_case_integer_parse_into_buffer@_K@?$output_processor@_WV?$string_output_adapter@_W@__crt_stdio_output@@V?$standard_base@_WV?$string_output_adapter@_W@__crt_stdio_output@@@2@@__crt_stdio_output@@AEAAX_KI_N@Z 0000000180024bc8     libucrt:output.obj
 0002:0000abc8       $unwind$??$type_case_integer_parse_into_buffer@I@?$output_processor@_WV?$string_output_adapter@_W@__crt_stdio_output@@V?$standard_base@_WV?$string_output_adapter@_W@__crt_stdio_output@@@2@@__crt_stdio_output@@AEAAXII_N@Z 0000000180024bc8     libucrt:output.obj
 0002:0000abc8       $unwind$??$type_case_integer_parse_into_buffer@I@?$output_processor@_WV?$stream_output_adapter@_W@__crt_stdio_output@@V?$standard_base@_WV?$stream_output_adapter@_W@__crt_stdio_output@@@2@@__crt_stdio_output@@AEAAXII_N@Z 0000000180024bc8     libucrt:output.obj
 0002:0000abd0       $unwind$??$?RV<lambda_0d412022a4b28cc8a401ea49574e8ae6>@@AEAV<lambda_a775ed57af18ba8e4d5dc780aa9068fe>@@V<lambda_975a71a6baa488a08f4e15f6b0339b9e>@@@?$__crt_seh_guarded_call@H@@QEAAH$$QEAV<lambda_0d412022a4b28cc8a401ea49574e8ae6>@@AEAV<lambda_a775ed57af18ba8e4d5dc780aa9068fe>@@$$QEAV<lambda_975a71a6baa488a08f4e15f6b0339b9e>@@@Z 0000000180024bd0     libucrt:output.obj
 0002:0000abf4       $unwind$_log10_special     0000000180024bf4     libucrt:log_special.obj
 0002:0000abf4       $unwind$fflush             0000000180024bf4     libucrt:fflush.obj
 0002:0000abf4       $unwind$wctomb_s           0000000180024bf4     libucrt:wctomb.obj
 0002:0000abf4       $unwind$strtol             0000000180024bf4     libucrt:strtox.obj
 0002:0000abf4       $unwind$_itow_s            0000000180024bf4     libucrt:xtoa.obj
 0002:0000abf4       $unwind$wcstol             0000000180024bf4     libucrt:strtox.obj
 0002:0000abf4       $unwind$atoi               0000000180024bf4     libucrt:atox.obj
 0002:0000abf4       $unwind$_invalid_parameter_noinfo 0000000180024bf4     libucrt:invalid_parameter.obj
 0002:0000abf4       $unwind$_invalid_parameter_noinfo_noreturn 0000000180024bf4     libucrt:invalid_parameter.obj
 0002:0000abfc       $unwind$??$parse_integer@KV?$c_string_character_source@D@__crt_strtox@@@__crt_strtox@@YAKQEAU__crt_locale_pointers@@V?$c_string_character_source@D@0@H_N@Z 0000000180024bfc     libucrt:atox.obj
 0002:0000ac18       $unwind$??$parse_integer@KV?$c_string_character_source@_W@__crt_strtox@@@__crt_strtox@@YAKQEAU__crt_locale_pointers@@V?$c_string_character_source@_W@0@H_N@Z 0000000180024c18     libucrt:atox.obj
 0002:0000ac30       $unwind$fwprintf           0000000180024c30     libucrt:assert.obj
 0002:0000ac3c       $unwind$??$common_assert_to_stderr@_W@@YAXQEB_W0I@Z 0000000180024c3c     libucrt:assert.obj
 0002:0000ac58       $unwind$??$common_assert_to_message_box@_W@@YAXQEB_W0IQEAX@Z 0000000180024c58     libucrt:assert.obj
 0002:0000ac74       $unwind$??$common_assert_to_message_box_build_string@_W@@YAXQEA_W_KQEB_W2IQEAX@Z 0000000180024c74     libucrt:assert.obj
 0002:0000ac94       $unwind$__acrt_call_reportfault 0000000180024c94     libucrt:invalid_parameter.obj
 0002:0000acb4       $unwind$_stricmp_l         0000000180024cb4     libucrt:stricmp.obj
 0002:0000acb4       $unwind$?x_ismbbtype_l@@YAHPEAU__crt_locale_pointers@@IHH@Z 0000000180024cb4     libucrt:ismbbyte.obj
 0002:0000acc4       $unwind$_query_new_handler 0000000180024cc4     libucrt:new_handler.obj
 0002:0000ace4       $unwind$?common_exit@@YAXHW4_crt_exit_cleanup_mode@@W4_crt_exit_return_mode@@@Z 0000000180024ce4     libucrt:exit.obj
 0002:0000acf0       $unwind$??R<lambda_6e4b09c48022b2350581041d5f6b0c4c>@@QEBA@XZ 0000000180024cf0     libucrt:exit.obj
 0002:0000ad10       $unwind$??$?RV<lambda_d80eeec6fff315bfe5c115232f3240e3>@@AEAV<lambda_6e4b09c48022b2350581041d5f6b0c4c>@@V<lambda_2358e3775559c9db80273638284d5e45>@@@?$__crt_seh_guarded_call@X@@QEAAX$$QEAV<lambda_d80eeec6fff315bfe5c115232f3240e3>@@AEAV<lambda_6e4b09c48022b2350581041d5f6b0c4c>@@$$QEAV<lambda_2358e3775559c9db80273638284d5e45>@@@Z 0000000180024d10     libucrt:exit.obj
 0002:0000ad34       $unwind$_configure_narrow_argv 0000000180024d34     libucrt:argv_parsing.obj
 0002:0000ad48       $unwind$??$free_environment@D@@YAXQEAPEAD@Z 0000000180024d48     libucrt:environment_initialization.obj
 0002:0000ad48       $unwind$??$free_environment@_W@@YAXQEAPEA_W@Z 0000000180024d48     libucrt:environment_initialization.obj
 0002:0000ad54       $unwind$??$create_environment@D@@YAQEAPEADQEAD@Z 0000000180024d54     libucrt:environment_initialization.obj
 0002:0000ad6c       $unwind$_execute_onexit_table 0000000180024d6c     libucrt:onexit.obj
 0002:0000ad74       $unwind$??$?RV<lambda_7777bce6b2f8c936911f934f8298dc43>@@AEAV<lambda_f03950bc5685219e0bcd2087efbe011e>@@V<lambda_3883c3dff614d5e0c5f61bb1ac94921c>@@@?$__crt_seh_guarded_call@H@@QEAAH$$QEAV<lambda_7777bce6b2f8c936911f934f8298dc43>@@AEAV<lambda_f03950bc5685219e0bcd2087efbe011e>@@$$QEAV<lambda_3883c3dff614d5e0c5f61bb1ac94921c>@@@Z 0000000180024d74     libucrt:onexit.obj
 0002:0000ad98       $unwind$terminate          0000000180024d98     libucrt:terminate.obj
 0002:0000adb8       $xdatasym                  0000000180024db8     libucrt:strncmp.obj
 0002:0000adbc       $unwind$_tolower_l         0000000180024dbc     libucrt:tolower_toupper.obj
 0002:0000adcc       $unwind$__acrt_locale_free_lc_time_if_unreferenced 0000000180024dcc     libucrt:locale_refcounting.obj
 0002:0000adcc       $unwind$_free_base         0000000180024dcc     libucrt:free_base.obj
 0002:0000adcc       $unwind$__acrt_locale_free_numeric 0000000180024dcc     libucrt:initnum.obj
 0002:0000adcc       $unwind$?destroy_fls@@YAXPEAX@Z 0000000180024dcc     libucrt:per_thread_data.obj
 0002:0000add4       $unwind$_mbtowc_l          0000000180024dd4     libucrt:mbtowc.obj
 0002:0000adec       $unwind$_wctomb_s_l        0000000180024dec     libucrt:wctomb.obj
 0002:0000adfc       $unwind$?construct_ptd_array@@YAXQEAU__acrt_ptd@@@Z 0000000180024dfc     libucrt:per_thread_data.obj
 0002:0000ae04       $unwind$?destroy_ptd_array@@YAXQEAU__acrt_ptd@@@Z 0000000180024e04     libucrt:per_thread_data.obj
 0002:0000ae0c       $unwind$??$?RV<lambda_0ae27a3a962d80f24befdcbee591983d>@@AEAV<lambda_8d0ee55de4b1038c4002e0adecdf1839>@@V<lambda_dc504788e8f1664fe9b84e20bfb512f2>@@@?$__crt_seh_guarded_call@X@@QEAAX$$QEAV<lambda_0ae27a3a962d80f24befdcbee591983d>@@AEAV<lambda_8d0ee55de4b1038c4002e0adecdf1839>@@$$QEAV<lambda_dc504788e8f1664fe9b84e20bfb512f2>@@@Z 0000000180024e0c     libucrt:per_thread_data.obj
 0002:0000ae30       $unwind$??$?RV<lambda_aa87e3671a710a21b5dc78c0bdf72e11>@@AEAV<lambda_92619d2358a28f41a33ba319515a20b9>@@V<lambda_6992ecaafeb10aed2b74cb1fae11a551>@@@?$__crt_seh_guarded_call@X@@QEAAX$$QEAV<lambda_aa87e3671a710a21b5dc78c0bdf72e11>@@AEAV<lambda_92619d2358a28f41a33ba319515a20b9>@@$$QEAV<lambda_6992ecaafeb10aed2b74cb1fae11a551>@@@Z 0000000180024e30     libucrt:per_thread_data.obj
 0002:0000ae54       $unwind$??$?RV<lambda_f2e299630e499de9f9a165e60fcd3db5>@@AEAV<lambda_2ae9d31cdba2644fcbeaf08da7c24588>@@V<lambda_40d01ff24d0e7b3814fdbdcee8eab3c7>@@@?$__crt_seh_guarded_call@X@@QEAAX$$QEAV<lambda_f2e299630e499de9f9a165e60fcd3db5>@@AEAV<lambda_2ae9d31cdba2644fcbeaf08da7c24588>@@$$QEAV<lambda_40d01ff24d0e7b3814fdbdcee8eab3c7>@@@Z 0000000180024e54     libucrt:per_thread_data.obj
 0002:0000ae78       $unwind$??$?RV<lambda_2d41944a1d46af3157314b8a01080d33>@@AEAV<lambda_8f455de75cd7d7f24b4096f044d8b9e6>@@V<lambda_aa500f224e6afead328df44964fe2772>@@@?$__crt_seh_guarded_call@X@@QEAAX$$QEAV<lambda_2d41944a1d46af3157314b8a01080d33>@@AEAV<lambda_8f455de75cd7d7f24b4096f044d8b9e6>@@$$QEAV<lambda_aa500f224e6afead328df44964fe2772>@@@Z 0000000180024e78     libucrt:per_thread_data.obj
 0002:0000ae9c       $unwind$__acrt_fp_format   0000000180024e9c     libucrt:cvt.obj
 0002:0000aeb0       $unwind$?fp_format_nan_or_infinity@@YAHW4__acrt_fp_class@@_NPEAD_K1@Z 0000000180024eb0     libucrt:cvt.obj
 0002:0000aec4       $unwind$?fp_format_e_internal@@YAHQEAD_KH_NIQEAU_strflt@@2QEAU__crt_locale_pointers@@@Z 0000000180024ec4     libucrt:cvt.obj
 0002:0000aedc       $unwind$__acrt_LCMapStringEx 0000000180024edc     libucrt:winapi_thunks.obj
 0002:0000aedc       $unwind$?fp_format_e@@YAHQEBNQEAD_K12H_NIQEAU__crt_locale_pointers@@@Z 0000000180024edc     libucrt:cvt.obj
 0002:0000aef0       $unwind$?fp_format_a@@YAHQEBNPEAD_KQEAD2H_NIQEAU__crt_locale_pointers@@@Z 0000000180024ef0     libucrt:cvt.obj
 0002:0000af0c       $unwind$__dcrt_get_narrow_environment_from_os 0000000180024f0c     libucrt:get_environment_from_os.obj
 0002:0000af0c       $unwind$?fp_format_f_internal@@YAHQEAD_KHQEAU_strflt@@_NQEAU__crt_locale_pointers@@@Z 0000000180024f0c     libucrt:cvt.obj
 0002:0000af24       $unwind$?fp_format_g@@YAHQEBNQEAD_K12H_NIQEAU__crt_locale_pointers@@@Z 0000000180024f24     libucrt:cvt.obj
 0002:0000af38       $unwind$_fputwc_nolock     0000000180024f38     libucrt:fputwc.obj
 0002:0000af54       $unwind$__acrt_get_sigabrt_handler 0000000180024f54     libucrt:signal.obj
 0002:0000af54       $unwind$__acrt_uninitialize_locale 0000000180024f54     libucrt:wsetlocale.obj
 0002:0000af5c       $unwind$??$?RV<lambda_410d79af7f07d98d83a3f525b3859a53>@@AEAV<lambda_3e16ef9562a7dcce91392c22ab16ea36>@@V<lambda_38119f0e861e05405d8a144b9b982f0a>@@@?$__crt_seh_guarded_call@X@@QEAAX$$QEAV<lambda_410d79af7f07d98d83a3f525b3859a53>@@AEAV<lambda_3e16ef9562a7dcce91392c22ab16ea36>@@$$QEAV<lambda_38119f0e861e05405d8a144b9b982f0a>@@@Z 0000000180024f5c     libucrt:wsetlocale.obj
 0002:0000af84       $unwind$__acrt_initialize_lowio 0000000180024f84     libucrt:ioinit.obj
 0002:0000afa4       $unwind$?initialize_inherited_file_handles_nolock@@YAXXZ 0000000180024fa4     libucrt:ioinit.obj
 0002:0000afc0       $unwind$iswctype           0000000180024fc0     libucrt:iswctype.obj
 0002:0000afcc       $unwind$_isctype_l         0000000180024fcc     libucrt:isctype.obj
 0002:0000afe8       $unwind$?common_flush_all@@YAH_N@Z 0000000180024fe8     libucrt:fflush.obj
 0002:0000aff0       $unwind$??$?RV<lambda_842d9ff0dc9ef11c61343bbaebe7f885>@@AEAV<lambda_c5860995281e5c4ce005b3de8f5874ee>@@V<lambda_d90129c13df834fdcbf8d2b88dafcf2d>@@@?$__crt_seh_guarded_call@X@@QEAAX$$QEAV<lambda_842d9ff0dc9ef11c61343bbaebe7f885>@@AEAV<lambda_c5860995281e5c4ce005b3de8f5874ee>@@$$QEAV<lambda_d90129c13df834fdcbf8d2b88dafcf2d>@@@Z 0000000180024ff0     libucrt:fflush.obj
 0002:0000b014       $unwind$??$?RV<lambda_886d6c58226a84441f68b9f2b8217b83>@@AEAV<lambda_ab61a845afdef5b7c387490eaf3616ee>@@V<lambda_f7f22ab5edc0698d5f6905b0d3f44752>@@@?$__crt_seh_guarded_call@X@@QEAAX$$QEAV<lambda_886d6c58226a84441f68b9f2b8217b83>@@AEAV<lambda_ab61a845afdef5b7c387490eaf3616ee>@@$$QEAV<lambda_f7f22ab5edc0698d5f6905b0d3f44752>@@@Z 0000000180025014     libucrt:fflush.obj
 0002:0000b03c       $unwind$??$?RV<lambda_c376a267cfb53b6959b3b692ec76b120>@@AEAV<lambda_9a32fed5bf61b6b509b2d3f6003082a1>@@V<lambda_572fbb9fa0ab338edf41edfd4b5fcc8d>@@@?$__crt_seh_guarded_call@H@@QEAAH$$QEAV<lambda_c376a267cfb53b6959b3b692ec76b120>@@AEAV<lambda_9a32fed5bf61b6b509b2d3f6003082a1>@@$$QEAV<lambda_572fbb9fa0ab338edf41edfd4b5fcc8d>@@@Z 000000018002503c     libucrt:fflush.obj
 0002:0000b060       $unwind$setvbuf            0000000180025060     libucrt:setvbuf.obj
 0002:0000b068       $unwind$??$?RV<lambda_84ec643ea9557e2f7dc01bb0e9624395>@@AEAV<lambda_ca71763b3c0644891230e4f79ea54fa6>@@V<lambda_439a761618c59b0600e24586724d733b>@@@?$__crt_seh_guarded_call@H@@QEAAH$$QEAV<lambda_84ec643ea9557e2f7dc01bb0e9624395>@@AEAV<lambda_ca71763b3c0644891230e4f79ea54fa6>@@$$QEAV<lambda_439a761618c59b0600e24586724d733b>@@@Z 0000000180025068     libucrt:setvbuf.obj
 0002:0000b08c       $unwind$raise              000000018002508c     libucrt:signal.obj
 0002:0000b0b8       $unwind$??$?RV<lambda_450d765d439847d4c735a33c368b5fc0>@@AEAV<lambda_44731a7d0e6d81c3e6aa82d741081786>@@V<lambda_601a2a7da3b7a96e9554ac7215c4b07c>@@@?$__crt_seh_guarded_call@P6AXH@Z@@QEAAP6AXH@Z$$QEAV<lambda_450d765d439847d4c735a33c368b5fc0>@@AEAV<lambda_44731a7d0e6d81c3e6aa82d741081786>@@$$QEAV<lambda_601a2a7da3b7a96e9554ac7215c4b07c>@@@Z 00000001800250b8     libucrt:signal.obj
 0002:0000b0dc       $unwind$??$common_expand_argv_wildcards@D@@YAHQEAPEADQEAPEAPEAD@Z 00000001800250dc     libucrt:argv_wildcards.obj
 0002:0000b0f4       $unwind$??$copy_and_add_argument_to_buffer@D@@YAHQEBD0_KAEAV?$argument_list@D@?A0x5f5c8891@@@Z 00000001800250f4     libucrt:argv_wildcards.obj
 0002:0000b110       $unwind$??$expand_argument_wildcards@D@@YAHQEAD0AEAV?$argument_list@D@?A0x5f5c8891@@@Z 0000000180025110     libucrt:argv_wildcards.obj
 0002:0000b130       $unwind$_setmbcp_nolock    0000000180025130     libucrt:mbctype.obj
 0002:0000b150       $unwind$?update_thread_multibyte_data_internal@@YAPEAU__crt_multibyte_data@@QEAU__acrt_ptd@@QEAPEAU1@@Z 0000000180025150     libucrt:mbctype.obj
 0002:0000b178       $unwind$?setmbcp_internal@@YAHH_NQEAU__acrt_ptd@@QEAPEAU__crt_multibyte_data@@@Z 0000000180025178     libucrt:mbctype.obj
 0002:0000b188       $unwind$?setSBUpLow@@YAXPEAU__crt_multibyte_data@@@Z 0000000180025188     libucrt:mbctype.obj
 0002:0000b1a4       $unwind$??$?RV<lambda_efdfa57d1f175319df784efa44bb7b81>@@AEAV<lambda_5f0a4c1567f8adc6734073e5d1e1b35c>@@V<lambda_2e8a7d3640ea6ccb4c2413664c2db6fd>@@@?$__crt_seh_guarded_call@X@@QEAAX$$QEAV<lambda_efdfa57d1f175319df784efa44bb7b81>@@AEAV<lambda_5f0a4c1567f8adc6734073e5d1e1b35c>@@$$QEAV<lambda_2e8a7d3640ea6ccb4c2413664c2db6fd>@@@Z 00000001800251a4     libucrt:mbctype.obj
 0002:0000b1cc       $unwind$__acrt_is_interactive 00000001800251cc     libucrt:winapi_thunks.obj
 0002:0000b1e0       $unwind$__acrt_LCMapStringA 00000001800251e0     libucrt:lcmapstringa.obj
 0002:0000b1f0       $unwind$?__acrt_LCMapStringA_stat@@YAHPEAU__crt_locale_pointers@@PEB_WKPEBDHPEADHHH@Z 00000001800251f0     libucrt:lcmapstringa.obj
 0002:0000b218       $unwind$__acrt_update_thread_locale_data 0000000180025218     libucrt:locale_refcounting.obj
 0002:0000b23c       $unwind$__acrt_fltout      000000018002523c     libucrt:cfout.obj
 0002:0000b25c       $unwind$?divide@__crt_strtox@@YA_KAEAUbig_integer@1@AEBU21@@Z 000000018002525c     libucrt:cfout.obj
 0002:0000b27c       $chain$5$?divide@__crt_strtox@@YA_KAEAUbig_integer@1@AEBU21@@Z 000000018002527c     libucrt:cfout.obj
 0002:0000b290       $chain$6$?divide@__crt_strtox@@YA_KAEAUbig_integer@1@AEBU21@@Z 0000000180025290     libucrt:cfout.obj
 0002:0000b2a0       $unwind$??$write_buffer_nolock@D@@YA_NDV__crt_stdio_stream@@@Z 00000001800252a0     libucrt:_flsbuf.obj
 0002:0000b2b0       $unwind$??$write_buffer_nolock@_W@@YA_N_WV__crt_stdio_stream@@@Z 00000001800252b0     libucrt:_flsbuf.obj
 0002:0000b2c0       $unwind$_fcloseall         00000001800252c0     libucrt:closeall.obj
 0002:0000b2e4       $unwind$__acrt_locale_free_monetary 00000001800252e4     libucrt:initmon.obj
 0002:0000b2ec       $unwind$__acrt_locale_free_time 00000001800252ec     libucrt:inittime.obj
 0002:0000b2fc       $unwind$__acrt_GetStringTypeA 00000001800252fc     libucrt:getstringtypea.obj
 0002:0000b324       $unwind$__acrt_lowio_destroy_handle_array 0000000180025324     libucrt:osfinfo.obj
 0002:0000b334       $unwind$__acrt_lowio_ensure_fh_exists 0000000180025334     libucrt:osfinfo.obj
 0002:0000b360       $unwind$_close             0000000180025360     libucrt:close.obj
 0002:0000b360       $unwind$_commit            0000000180025360     libucrt:commit.obj
 0002:0000b368       $unwind$??$?RV<lambda_a37b2b86f63e897a80ea819b0eb08c01>@@AEAV<lambda_38ce7e780aa69e748d6df282ebc68efe>@@V<lambda_99fb1378e971ab6e7edea83e3a7a83a2>@@@?$__crt_seh_guarded_call@H@@QEAAH$$QEAV<lambda_a37b2b86f63e897a80ea819b0eb08c01>@@AEAV<lambda_38ce7e780aa69e748d6df282ebc68efe>@@$$QEAV<lambda_99fb1378e971ab6e7edea83e3a7a83a2>@@@Z 0000000180025368     libucrt:commit.obj
 0002:0000b38c       $unwind$_write             000000018002538c     libucrt:write.obj
 0002:0000b3bc       $unwind$_write_nolock      00000001800253bc     libucrt:write.obj
 0002:0000b3d4       $unwind$?write_double_translated_ansi_nolock@@YA?AUwrite_result@?A0x17268360@@HQEBDI@Z 00000001800253d4     libucrt:write.obj
 0002:0000b3f4       $unwind$?write_text_utf16le_nolock@@YA?AUwrite_result@?A0x17268360@@HQEBDI@Z 00000001800253f4     libucrt:write.obj
 0002:0000b3f4       $unwind$?write_text_ansi_nolock@@YA?AUwrite_result@?A0x17268360@@HQEBDI@Z 00000001800253f4     libucrt:write.obj
 0002:0000b414       $unwind$?write_text_utf8_nolock@@YA?AUwrite_result@?A0x17268360@@HQEBDI@Z 0000000180025414     libucrt:write.obj
 0002:0000b438       $unwind$qsort              0000000180025438     libucrt:qsort.obj
 0002:0000b450       $chain$4$qsort             0000000180025450     libucrt:qsort.obj
 0002:0000b474       $chain$5$qsort             0000000180025474     libucrt:qsort.obj
 0002:0000b484       $unwind$strpbrk            0000000180025484     libucrt:strpbrk.obj
 0002:0000b494       $unwind$fallbackMethod     0000000180025494     libucrt:strpbrk.obj
 0002:0000b4a4       $unwind$?GetTableIndexFromLocaleName@@YAHPEB_W@Z 00000001800254a4     libucrt:lcidtoname_downlevel.obj
 0002:0000b4c0       $xdatasym                  00000001800254c0     libucrt:log10.obj
 0002:0000b4cc       $unwind$??$common_lseek@_J@@YA_JH_JH@Z 00000001800254cc     libucrt:lseek.obj
 0002:0000b4fc       $unwind$fclose             00000001800254fc     libucrt:fclose.obj
 0002:0000b520       $unwind$_putwch_nolock     0000000180025520     libucrt:putwch.obj
 0002:0000b528       $unwind$__acrt_fenv_set_control 0000000180025528     libucrt:_fenvutils.obj
 0002:0000b538       $unwind$_call_matherr      0000000180025538     libucrt:libm_error.obj
 0002:0000b540       $unwind$_handle_error      0000000180025540     libucrt:libm_error.obj
 0002:0000b560       $unwind$__acrt_initialize_fma3 0000000180025560     libucrt:fma3_available.obj
 0002:0000b568       $unwind$_log_special_common 0000000180025568     libucrt:log_special.obj
 0002:0000b574       $unwind$??$?RV<lambda_751a882b2c74d4b022dec766aa51a29a>@@AEAV<lambda_628dfdc04ba53c8bfc02c9951375f3f5>@@V<lambda_f6c7be5f7998530c34de24c7437d6b54>@@@?$__crt_seh_guarded_call@H@@QEAAH$$QEAV<lambda_751a882b2c74d4b022dec766aa51a29a>@@AEAV<lambda_628dfdc04ba53c8bfc02c9951375f3f5>@@$$QEAV<lambda_f6c7be5f7998530c34de24c7437d6b54>@@@Z 0000000180025574     libucrt:close.obj
 0002:0000b598       $unwind$__dcrt_write_console_w 0000000180025598     libucrt:initcon.obj
 0002:0000b5b0       $xdatasym                  00000001800255b0     libucrt:fpsr.obj
 0002:0000b5b8       $unwind$_raise_exc_ex      00000001800255b8     libucrt:fpexcept.obj
 0002:0000b5cc       $unwind$_ctrlfp            00000001800255cc     libucrt:fpctrl.obj
 0002:0000b5f4       $unwind$?DloadObtainSection@@YAPEAXPEAK0@Z 00000001800255f4     DelayImp:delayhlp.obj
 0002:0000b604       $unwind$?DloadMakePermanentImageCommit@@YAXPEAX_K@Z 0000000180025604     DelayImp:delayhlp.obj
 0002:0000b610       $unwind$?DloadProtectSection@@YAXKPEAK@Z 0000000180025610     DelayImp:delayhlp.obj
 0002:0000b620       $unwind$__delayLoadHelper2 0000000180025620     DelayImp:delayhlp.obj
 0002:0000b638       $unwind$_IsNonwritableInCurrentImage 0000000180025638     LIBCMT:pesect.obj
 0002:0000b65c       $unwind$__GSHandlerCheckCommon 000000018002565c     LIBCMT:gshandler.obj
 0002:0000b668       $xdatasym                  0000000180025668     LIBCMT:chkstk.obj
 0002:0000b670       $unwind$strrchr            0000000180025670     libvcruntime:strrchr.obj
 0002:0000b678       $xdatasym                  0000000180025678     libvcruntime:memcmp.obj
 0002:0000c740       .edata                     0000000180026740     bcrypt_lib.exp
 0002:0000c768       rgpv                       0000000180026768     bcrypt_lib.exp
 0002:0000c76c       rgszName                   000000018002676c     bcrypt_lib.exp
 0002:0000c770       rgwOrd                     0000000180026770     bcrypt_lib.exp
 0002:0000c772       szName                     0000000180026772     bcrypt_lib.exp
 0002:0000c782       $N00001                    0000000180026782     bcrypt_lib.exp
 0002:0000ca2c       .idata$6                   0000000180026a2c     kernel32:KERNEL32.dll
 0003:00000030       ?__vcrt_flsindex@@3KA      0000000180027030     libvcruntime:per_thread_data.obj
 0003:00000050       ?errno_no_memory@@3HA      0000000180027050     libucrt:errno.obj
 0003:00000054       ?doserrno_no_memory@@3KA   0000000180027054     libucrt:errno.obj
 0003:00000058       ?__acrt_flsindex@@3KA      0000000180027058     libucrt:per_thread_data.obj
 0003:00000560       _mbctypes                  0000000180027560     libucrt:mbctype.obj
 0003:00000670       _mbcasemaps                0000000180027670     libucrt:mbctype.obj
 0003:00000770       ?__rgctypeflag@@3PADA      0000000180027770     libucrt:mbctype.obj
 0003:00000780       ?__rgcode_page_info@@3PAUcode_page_info@@A 0000000180027780     libucrt:mbctype.obj
 0003:00000920       ?__dcrt_lowio_console_output_handle@@3PEAXEA 0000000180027920     libucrt:initcon.obj
 0003:00000930       ?dazSupported@?1??_ctrlfp@@9@9 0000000180027930     libucrt:fpctrl.obj
 0003:00000950       _module                    0000000180027950     bcrypt_node.obj
 0003:00000be8       ?__proc_attached@@3HA      0000000180027be8     LIBCMT:dll_dllmain.obj
 0003:00000bf0       GS_ExceptionRecord         0000000180027bf0     LIBCMT:gs_report.obj
 0003:00000c90       GS_ContextRecord           0000000180027c90     LIBCMT:gs_report.obj
 0003:00001188       ?is_initialized_as_dll@@3_NA 0000000180028188     LIBCMT:utility.obj
 0003:00001189       ?module_local_atexit_table_initialized@@3_NA 0000000180028189     LIBCMT:utility.obj
 0003:00001190       ?module_local_atexit_table@@3U_onexit_table_t@@A 0000000180028190     LIBCMT:utility.obj
 0003:000011a8       ?module_local_at_quick_exit_table@@3U_onexit_table_t@@A 00000001800281a8     LIBCMT:utility.obj
 0003:00001218       ?heap@@3V_HeapManager@@A   0000000180028218     libvcruntime:undname.obj
 0003:00001240       ?__vcrt_startup_thread_ptd@@3U__vcrt_ptd@@A 0000000180028240     libvcruntime:per_thread_data.obj
 0003:000012d0       __vcrt_lock_table          00000001800282d0     libvcruntime:locks.obj
 0003:000012f8       __vcrt_locks_initialized   00000001800282f8     libvcruntime:locks.obj
 0003:00001300       ?module_handles@@3PAPEAUHINSTANCE__@@A 0000000180028300     libvcruntime:winapi_downlevel.obj
 0003:00001318       ?encoded_function_pointers@@3PAPEAXA 0000000180028318     libvcruntime:winapi_downlevel.obj
 0003:00001340       ?__acrt_invalid_parameter_handler@@3V?$dual_state_global@P6AXPEB_W00I_K@Z@__crt_state_management@@A 0000000180028340     libucrt:invalid_parameter.obj
 0003:00001348       ?__acrt_new_handler@@3V?$dual_state_global@P6AH_K@Z@__crt_state_management@@A 0000000180028348     libucrt:new_handler.obj
 0003:00001350       ?c_termination_complete@@3JA 0000000180028350     libucrt:exit.obj
 0003:00001358       ?thread_local_exit_callback_func@@3P6AXPEAXK0@ZEA 0000000180028358     libucrt:exit.obj
 0003:00001370       ?program_name@?1???$common_configure_argv@D@@YAHW4_crt_argv_mode@@@Z@4PADA 0000000180028370     libucrt:argv_parsing.obj
 0003:000014e0       ?enable_percent_n@@3_KA    00000001800284e0     libucrt:printf_count_output.obj
 0003:00001914       ?__acrt_app_type@@3W4_crt_app_type@@A 0000000180028914     libucrt:report_runtime_error.obj
 0003:00001918       __acrt_error_mode          0000000180028918     libucrt:set_error_mode.obj
 0003:00001920       ?ctrlc_action@@3V?$dual_state_global@P6AXH@Z@__crt_state_management@@A 0000000180028920     libucrt:signal.obj
 0003:00001928       ?ctrlbreak_action@@3V?$dual_state_global@P6AXH@Z@__crt_state_management@@A 0000000180028928     libucrt:signal.obj
 0003:00001930       ?abort_action@@3V?$dual_state_global@P6AXH@Z@__crt_state_management@@A 0000000180028930     libucrt:signal.obj
 0003:00001938       ?term_action@@3V?$dual_state_global@P6AXH@Z@__crt_state_management@@A 0000000180028938     libucrt:signal.obj
 0003:00001940       ?__acrt_lock_table@@3PAU_RTL_CRITICAL_SECTION@@A 0000000180028940     libucrt:locks.obj
 0003:00001b70       ?__acrt_locks_initialized@@3IA 0000000180028b70     libucrt:locks.obj
 0003:00001b74       ?state_cache@?1???$get_cached_win_policy@Udeveloper_information_policy_properties@?1??__acrt_get_developer_information_policy@@YA?AW4developer_information_policy@@XZ@@@YA?AW4developer_information_policy@@W4AppPolicyShowDeveloperDiagnostic@@@Z@4JA 0000000180028b74     libucrt:win_policies.obj
 0003:00001b78       ?state_cache@?1???$get_cached_win_policy@Uwindowing_model_policy_properties@?1??__acrt_get_windowing_model_policy@@YA?AW4windowing_model_policy@@XZ@@@YA?AW4windowing_model_policy@@W4AppPolicyWindowingModel@@@Z@4JA 0000000180028b78     libucrt:win_policies.obj
 0003:00001b98       ?fSystemSet@@3HA           0000000180028b98     libucrt:mbctype.obj
 0003:00001b9c       ?initialized@?1??__acrt_initialize_multibyte@@9@4_NA 0000000180028b9c     libucrt:mbctype.obj
 0003:00001bd0       ?module_handles@@3PAPEAUHINSTANCE__@@A 0000000180028bd0     libucrt:winapi_thunks.obj
 0003:00001c70       ?encoded_function_pointers@@3PAPEAXA 0000000180028c70     libucrt:winapi_thunks.obj
 0003:00001d88       ?user_matherr@@3V?$dual_state_global@P6AHPEAU_exception@@@Z@__crt_state_management@@A 0000000180028d88     libucrt:matherr.obj
 0003:00001d90       ?__acrt_global_new_mode@@3V?$dual_state_global@J@__crt_state_management@@A 0000000180028d90     libucrt:new_mode.obj
 0004:00000000       $pdata$?Blowfish_encipher@@YAXPEAUBlowfishContext@@PEAI1@Z 0000000180029000     blowfish.obj
 0004:0000000c       $pdata$?Blowfish_expand0state@@YAXPEAUBlowfishContext@@PEBEG@Z 000000018002900c     blowfish.obj
 0004:00000018       $pdata$?Blowfish_expandstate@@YAXPEAUBlowfishContext@@PEBEG1G@Z 0000000180029018     blowfish.obj
 0004:00000024       $pdata$_snprintf           0000000180029024     bcrypt.obj
 0004:00000030       $pdata$?bcrypt@@YAXPEBD0PEAD@Z 0000000180029030     bcrypt.obj
 0004:0000003c       $pdata$0$?bcrypt@@YAXPEBD0PEAD@Z 000000018002903c     bcrypt.obj
 0004:00000048       $pdata$1$?bcrypt@@YAXPEBD0PEAD@Z 0000000180029048     bcrypt.obj
 0004:00000054       $pdata$2$?bcrypt@@YAXPEBD0PEAD@Z 0000000180029054     bcrypt.obj
 0004:00000060       $pdata$3$?bcrypt@@YAXPEBD0PEAD@Z 0000000180029060     bcrypt.obj
 0004:0000006c       $pdata$?encode_base64@@YAXPEAE0G@Z 000000018002906c     bcrypt.obj
 0004:00000078       $pdata$0$?encode_base64@@YAXPEAE0G@Z 0000000180029078     bcrypt.obj
 0004:00000084       $pdata$2$?encode_base64@@YAXPEAE0G@Z 0000000180029084     bcrypt.obj
 0004:00000090       $pdata$4$?encode_base64@@YAXPEAE0G@Z 0000000180029090     bcrypt.obj
 0004:0000009c       $pdata$5$?encode_base64@@YAXPEAE0G@Z 000000018002909c     bcrypt.obj
 0004:000000a8       $pdata$?FunctionCallbackWrapper@imp@Nan@@YAXAEBV?$FunctionCallbackInfo@VValue@v8@@@v8@@@Z 00000001800290a8     bcrypt_node.obj
 0004:000000b4       $pdata$?ThrowError@Nan@@YAXPEBD@Z 00000001800290b4     bcrypt_node.obj
 0004:000000c0       $pdata$?ThrowTypeError@Nan@@YAXPEBD@Z 00000001800290c0     bcrypt_node.obj
 0004:000000cc       $pdata$??0Utf8String@Nan@@QEAA@V?$Local@VValue@v8@@@v8@@@Z 00000001800290cc     bcrypt_node.obj
 0004:000000d8       $pdata$1$??0Utf8String@Nan@@QEAA@V?$Local@VValue@v8@@@v8@@@Z 00000001800290d8     bcrypt_node.obj
 0004:000000e4       $pdata$2$??0Utf8String@Nan@@QEAA@V?$Local@VValue@v8@@@v8@@@Z 00000001800290e4     bcrypt_node.obj
 0004:000000f0       $pdata$?Call@Callback@Nan@@QEBA?AV?$MaybeLocal@VValue@v8@@@v8@@HQEAV?$Local@VValue@v8@@@4@PEAVAsyncResource@2@@Z 00000001800290f0     bcrypt_node.obj
 0004:000000fc       $pdata$??0AsyncWorker@Nan@@QEAA@PEAVCallback@1@PEBD@Z 00000001800290fc     bcrypt_node.obj
 0004:00000108       $pdata$??1AsyncWorker@Nan@@UEAA@XZ 0000000180029108     bcrypt_node.obj
 0004:00000114       $pdata$?WorkComplete@AsyncWorker@Nan@@UEAAXXZ 0000000180029114     bcrypt_node.obj
 0004:00000120       $pdata$?HandleOKCallback@AsyncWorker@Nan@@MEAAXXZ 0000000180029120     bcrypt_node.obj
 0004:0000012c       $pdata$?HandleErrorCallback@AsyncWorker@Nan@@MEAAXXZ 000000018002912c     bcrypt_node.obj
 0004:00000138       $pdata$??_GAsyncWorker@Nan@@UEAAPEAXI@Z 0000000180029138     bcrypt_node.obj
 0004:00000144       $pdata$?AsyncExecuteComplete@Nan@@YAXPEAUuv_work_s@@@Z 0000000180029144     bcrypt_node.obj
 0004:00000150       $pdata$?AsyncQueueWorker@Nan@@YAXPEAVAsyncWorker@1@@Z 0000000180029150     bcrypt_node.obj
 0004:0000015c       $pdata$?Export@Nan@@YAXV?$Local@VObject@v8@@@v8@@PEBDP6AXAEBV?$FunctionCallbackInfo@VValue@v8@@@1@@Z@Z 000000018002915c     bcrypt_node.obj
 0004:00000168       $pdata$?ValidateSalt@?A0x6ae9514c@@YA_NPEBD@Z 0000000180029168     bcrypt_node.obj
 0004:00000174       $pdata$?ToCharVersion@?A0x6ae9514c@@YADV?$Local@VString@v8@@@v8@@@Z 0000000180029174     bcrypt_node.obj
 0004:00000180       $pdata$?Execute@SaltAsyncWorker@?A0x6ae9514c@@UEAAXXZ 0000000180029180     bcrypt_node.obj
 0004:0000018c       $pdata$?HandleOKCallback@SaltAsyncWorker@?A0x6ae9514c@@UEAAXXZ 000000018002918c     bcrypt_node.obj
 0004:00000198       $pdata$??_GSaltAsyncWorker@?A0x6ae9514c@@UEAAPEAXI@Z 0000000180029198     bcrypt_node.obj
 0004:000001a4       $pdata$?GenerateSalt@?A0x6ae9514c@@YAXAEBV?$FunctionCallbackInfo@VValue@v8@@@Nan@@@Z 00000001800291a4     bcrypt_node.obj
 0004:000001b0       $pdata$5$?GenerateSalt@?A0x6ae9514c@@YAXAEBV?$FunctionCallbackInfo@VValue@v8@@@Nan@@@Z 00000001800291b0     bcrypt_node.obj
 0004:000001bc       $pdata$6$?GenerateSalt@?A0x6ae9514c@@YAXAEBV?$FunctionCallbackInfo@VValue@v8@@@Nan@@@Z 00000001800291bc     bcrypt_node.obj
 0004:000001c8       $pdata$?GenerateSaltSync@?A0x6ae9514c@@YAXAEBV?$FunctionCallbackInfo@VValue@v8@@@Nan@@@Z 00000001800291c8     bcrypt_node.obj
 0004:000001d4       $pdata$0$?GenerateSaltSync@?A0x6ae9514c@@YAXAEBV?$FunctionCallbackInfo@VValue@v8@@@Nan@@@Z 00000001800291d4     bcrypt_node.obj
 0004:000001e0       $pdata$2$?GenerateSaltSync@?A0x6ae9514c@@YAXAEBV?$FunctionCallbackInfo@VValue@v8@@@Nan@@@Z 00000001800291e0     bcrypt_node.obj
 0004:000001ec       $pdata$3$?GenerateSaltSync@?A0x6ae9514c@@YAXAEBV?$FunctionCallbackInfo@VValue@v8@@@Nan@@@Z 00000001800291ec     bcrypt_node.obj
 0004:000001f8       $pdata$4$?GenerateSaltSync@?A0x6ae9514c@@YAXAEBV?$FunctionCallbackInfo@VValue@v8@@@Nan@@@Z 00000001800291f8     bcrypt_node.obj
 0004:00000204       $pdata$5$?GenerateSaltSync@?A0x6ae9514c@@YAXAEBV?$FunctionCallbackInfo@VValue@v8@@@Nan@@@Z 0000000180029204     bcrypt_node.obj
 0004:00000210       $pdata$6$?GenerateSaltSync@?A0x6ae9514c@@YAXAEBV?$FunctionCallbackInfo@VValue@v8@@@Nan@@@Z 0000000180029210     bcrypt_node.obj
 0004:0000021c       $pdata$??1EncryptAsyncWorker@?A0x6ae9514c@@UEAA@XZ 000000018002921c     bcrypt_node.obj
 0004:00000228       $pdata$?Execute@EncryptAsyncWorker@?A0x6ae9514c@@UEAAXXZ 0000000180029228     bcrypt_node.obj
 0004:00000234       $pdata$?HandleOKCallback@EncryptAsyncWorker@?A0x6ae9514c@@UEAAXXZ 0000000180029234     bcrypt_node.obj
 0004:00000240       $pdata$??_GEncryptAsyncWorker@?A0x6ae9514c@@UEAAPEAXI@Z 0000000180029240     bcrypt_node.obj
 0004:0000024c       $pdata$?Encrypt@?A0x6ae9514c@@YAXAEBV?$FunctionCallbackInfo@VValue@v8@@@Nan@@@Z 000000018002924c     bcrypt_node.obj
 0004:00000258       $pdata$0$?Encrypt@?A0x6ae9514c@@YAXAEBV?$FunctionCallbackInfo@VValue@v8@@@Nan@@@Z 0000000180029258     bcrypt_node.obj
 0004:00000264       $pdata$1$?Encrypt@?A0x6ae9514c@@YAXAEBV?$FunctionCallbackInfo@VValue@v8@@@Nan@@@Z 0000000180029264     bcrypt_node.obj
 0004:00000270       $pdata$?EncryptSync@?A0x6ae9514c@@YAXAEBV?$FunctionCallbackInfo@VValue@v8@@@Nan@@@Z 0000000180029270     bcrypt_node.obj
 0004:0000027c       $pdata$0$?EncryptSync@?A0x6ae9514c@@YAXAEBV?$FunctionCallbackInfo@VValue@v8@@@Nan@@@Z 000000018002927c     bcrypt_node.obj
 0004:00000288       $pdata$1$?EncryptSync@?A0x6ae9514c@@YAXAEBV?$FunctionCallbackInfo@VValue@v8@@@Nan@@@Z 0000000180029288     bcrypt_node.obj
 0004:00000294       $pdata$?Execute@CompareAsyncWorker@?A0x6ae9514c@@UEAAXXZ 0000000180029294     bcrypt_node.obj
 0004:000002a0       $pdata$0$?Execute@CompareAsyncWorker@?A0x6ae9514c@@UEAAXXZ 00000001800292a0     bcrypt_node.obj
 0004:000002ac       $pdata$1$?Execute@CompareAsyncWorker@?A0x6ae9514c@@UEAAXXZ 00000001800292ac     bcrypt_node.obj
 0004:000002b8       $pdata$?HandleOKCallback@CompareAsyncWorker@?A0x6ae9514c@@UEAAXXZ 00000001800292b8     bcrypt_node.obj
 0004:000002c4       $pdata$??_GCompareAsyncWorker@?A0x6ae9514c@@UEAAPEAXI@Z 00000001800292c4     bcrypt_node.obj
 0004:000002d0       $pdata$?Compare@?A0x6ae9514c@@YAXAEBV?$FunctionCallbackInfo@VValue@v8@@@Nan@@@Z 00000001800292d0     bcrypt_node.obj
 0004:000002dc       $pdata$?CompareSync@?A0x6ae9514c@@YAXAEBV?$FunctionCallbackInfo@VValue@v8@@@Nan@@@Z 00000001800292dc     bcrypt_node.obj
 0004:000002e8       $pdata$0$?CompareSync@?A0x6ae9514c@@YAXAEBV?$FunctionCallbackInfo@VValue@v8@@@Nan@@@Z 00000001800292e8     bcrypt_node.obj
 0004:000002f4       $pdata$1$?CompareSync@?A0x6ae9514c@@YAXAEBV?$FunctionCallbackInfo@VValue@v8@@@Nan@@@Z 00000001800292f4     bcrypt_node.obj
 0004:00000300       $pdata$?GetRounds@?A0x6ae9514c@@YAXAEBV?$FunctionCallbackInfo@VValue@v8@@@Nan@@@Z 0000000180029300     bcrypt_node.obj
 0004:0000030c       $pdata$0$?GetRounds@?A0x6ae9514c@@YAXAEBV?$FunctionCallbackInfo@VValue@v8@@@Nan@@@Z 000000018002930c     bcrypt_node.obj
 0004:00000318       $pdata$1$?GetRounds@?A0x6ae9514c@@YAXAEBV?$FunctionCallbackInfo@VValue@v8@@@Nan@@@Z 0000000180029318     bcrypt_node.obj
 0004:00000324       $pdata$?init@@YAXV?$Local@VObject@v8@@@v8@@@Z 0000000180029324     bcrypt_node.obj
 0004:00000330       $pdata$??0?$basic_string@DU?$char_traits@D@std@@V?$allocator@D@2@@std@@QEAA@AEBV01@@Z 0000000180029330     bcrypt_node.obj
 0004:0000033c       $pdata$?assign@?$basic_string@DU?$char_traits@D@std@@V?$allocator@D@2@@std@@QEAAAEAV12@QEBD_K@Z 000000018002933c     bcrypt_node.obj
 0004:00000348       $pdata$0$?assign@?$basic_string@DU?$char_traits@D@std@@V?$allocator@D@2@@std@@QEAAAEAV12@QEBD_K@Z 0000000180029348     bcrypt_node.obj
 0004:00000354       $pdata$1$?assign@?$basic_string@DU?$char_traits@D@std@@V?$allocator@D@2@@std@@QEAAAEAV12@QEBD_K@Z 0000000180029354     bcrypt_node.obj
 0004:00000360       $pdata$2$?assign@?$basic_string@DU?$char_traits@D@std@@V?$allocator@D@2@@std@@QEAAAEAV12@QEBD_K@Z 0000000180029360     bcrypt_node.obj
 0004:0000036c       $pdata$3$?assign@?$basic_string@DU?$char_traits@D@std@@V?$allocator@D@2@@std@@QEAAAEAV12@QEBD_K@Z 000000018002936c     bcrypt_node.obj
 0004:00000378       $pdata$?_Xlen@?$basic_string@DU?$char_traits@D@std@@V?$allocator@D@2@@std@@SAXXZ 0000000180029378     bcrypt_node.obj
 0004:00000384       $pdata$?load_exe_hook@@YAP6A_JXZIPEAUDelayLoadInfo@@@Z 0000000180029384     win_delay_load_hook.obj
 0004:000003a8       $pdata$??2@YAPEAX_K@Z      00000001800293a8     LIBCMT:new_scalar.obj
 0004:000003b4       $pdata$?dllmain_crt_dispatch@@YAHQEAUHINSTANCE__@@KQEAX@Z 00000001800293b4     LIBCMT:dll_dllmain.obj
 0004:000003c0       $pdata$?dllmain_crt_process_attach@@YAHQEAUHINSTANCE__@@QEAX@Z 00000001800293c0     LIBCMT:dll_dllmain.obj
 0004:000003cc       $pdata$?dllmain_crt_process_detach@@YAH_N@Z 00000001800293cc     LIBCMT:dll_dllmain.obj
 0004:000003d8       $pdata$?dllmain_dispatch@@YAHQEAUHINSTANCE__@@KQEAX@Z 00000001800293d8     LIBCMT:dll_dllmain.obj
 0004:000003e4       $pdata$_DllMainCRTStartup  00000001800293e4     LIBCMT:dll_dllmain.obj
 0004:000003f0       $pdata$__raise_securityfailure 00000001800293f0     LIBCMT:gs_report.obj
 0004:000003fc       $pdata$__report_gsfailure  00000001800293fc     LIBCMT:gs_report.obj
 0004:00000408       $pdata$__report_rangecheckfailure 0000000180029408     LIBCMT:gs_report.obj
 0004:00000414       $pdata$__report_securityfailure 0000000180029414     LIBCMT:gs_report.obj
 0004:00000420       $pdata$capture_current_context 0000000180029420     LIBCMT:gs_report.obj
 0004:0000042c       $pdata$capture_previous_context 000000018002942c     LIBCMT:gs_report.obj
 0004:00000438       $pdata$??0bad_alloc@std@@QEAA@AEBV01@@Z 0000000180029438     LIBCMT:throw_bad_alloc.obj
 0004:00000444       $pdata$??0bad_array_new_length@std@@QEAA@AEBV01@@Z 0000000180029444     LIBCMT:throw_bad_alloc.obj
 0004:00000450       $pdata$??0exception@std@@QEAA@AEBV01@@Z 0000000180029450     LIBCMT:throw_bad_alloc.obj
 0004:0000045c       $pdata$??_Gbad_array_new_length@std@@UEAAPEAXI@Z 000000018002945c     LIBCMT:throw_bad_alloc.obj
 0004:0000045c       $pdata$??_Glength_error@std@@UEAAPEAXI@Z 000000018002945c     libcpmt:xthrow.obj
 0004:0000045c       $pdata$??_Gexception@std@@UEAAPEAXI@Z 000000018002945c     LIBCMT:throw_bad_alloc.obj
 0004:0000045c       $pdata$??_Gbad_alloc@std@@UEAAPEAXI@Z 000000018002945c     LIBCMT:throw_bad_alloc.obj
 0004:0000045c       $pdata$??_Glogic_error@std@@UEAAPEAXI@Z 000000018002945c     libcpmt:xthrow.obj
 0004:00000468       $pdata$?__scrt_throw_std_bad_alloc@@YAXXZ 0000000180029468     LIBCMT:throw_bad_alloc.obj
 0004:00000474       $pdata$?__scrt_throw_std_bad_array_new_length@@YAXXZ 0000000180029474     LIBCMT:throw_bad_alloc.obj
 0004:00000480       $pdata$__security_init_cookie 0000000180029480     LIBCMT:gs_support.obj
 0004:0000048c       $pdata$__scrt_initialize_default_local_stdio_options 000000018002948c     LIBCMT:default_local_stdio_options.obj
 0004:00000498       $pdata$__scrt_acquire_startup_lock 0000000180029498     LIBCMT:utility.obj
 0004:000004a4       $pdata$__scrt_dllmain_after_initialize_c 00000001800294a4     LIBCMT:utility.obj
 0004:000004b0       $pdata$__scrt_dllmain_before_initialize_c 00000001800294b0     LIBCMT:utility.obj
 0004:000004bc       $pdata$__scrt_dllmain_crt_thread_attach 00000001800294bc     LIBCMT:utility.obj
 0004:000004c8       $pdata$__scrt_dllmain_crt_thread_detach 00000001800294c8     LIBCMT:utility.obj
 0004:000004d4       $pdata$__scrt_dllmain_exception_filter 00000001800294d4     LIBCMT:utility.obj
 0004:000004e0       $pdata$__scrt_dllmain_uninitialize_c 00000001800294e0     LIBCMT:utility.obj
 0004:000004ec       $pdata$__scrt_dllmain_uninitialize_critical 00000001800294ec     LIBCMT:utility.obj
 0004:000004f8       $pdata$__scrt_initialize_crt 00000001800294f8     LIBCMT:utility.obj
 0004:00000504       $pdata$__scrt_initialize_onexit_tables 0000000180029504     LIBCMT:utility.obj
 0004:00000510       $pdata$__scrt_is_nonwritable_in_current_image 0000000180029510     LIBCMT:utility.obj
 0004:0000051c       $pdata$__scrt_release_startup_lock 000000018002951c     LIBCMT:utility.obj
 0004:00000528       $pdata$__scrt_uninitialize_crt 0000000180029528     LIBCMT:utility.obj
 0004:00000534       $pdata$__scrt_fastfail     0000000180029534     LIBCMT:utility_desktop.obj
 0004:00000540       $pdata$_RTC_Initialize     0000000180029540     LIBCMT:initsect.obj
 0004:0000054c       $pdata$_RTC_Terminate      000000018002954c     LIBCMT:initsect.obj
 0004:00000558       $pdata$??_Gtype_info@@UEAAPEAXI@Z 0000000180029558     LIBCMT:std_type_info_static.obj
 0004:00000564       $pdata$__isa_available_init 0000000180029564     LIBCMT:cpu_disp.obj
 0004:00000570       $pdata$??0length_error@std@@QEAA@AEBV01@@Z 0000000180029570     libcpmt:xthrow.obj
 0004:0000057c       $pdata$??0length_error@std@@QEAA@PEBD@Z 000000018002957c     libcpmt:xthrow.obj
 0004:00000588       $pdata$??0logic_error@std@@QEAA@AEBV01@@Z 0000000180029588     libcpmt:xthrow.obj
 0004:00000594       $pdata$?_Xlength_error@std@@YAXPEBD@Z 0000000180029594     libcpmt:xthrow.obj
 0004:000005a0       $pdata$_purecall           00000001800295a0     libvcruntime:purevirt.obj
 0004:000005ac       $pdata$__C_specific_handler 00000001800295ac     libvcruntime:riscchandler.obj
 0004:000005b8       $pdata$__std_exception_copy 00000001800295b8     libvcruntime:std_exception.obj
 0004:000005c4       $pdata$__std_exception_destroy 00000001800295c4     libvcruntime:std_exception.obj
 0004:000005d0       $pdata$_CxxThrowException  00000001800295d0     libvcruntime:throw.obj
 0004:000005dc       $pdata$__std_type_info_destroy_list 00000001800295dc     libvcruntime:std_type_info.obj
 0004:000005e8       $pdata$__vcrt_initialize   00000001800295e8     libvcruntime:initialization.obj
 0004:000005f4       $pdata$__vcrt_thread_attach 00000001800295f4     libvcruntime:initialization.obj
 0004:00000600       $pdata$__vcrt_thread_detach 0000000180029600     libvcruntime:initialization.obj
 0004:0000060c       $pdata$__vcrt_uninitialize 000000018002960c     libvcruntime:initialization.obj
 0004:00000618       $pdata$__vcrt_uninitialize_critical 0000000180029618     libvcruntime:initialization.obj
 0004:00000660       $pdata$__DestructExceptionObject 0000000180029660     libvcruntime:ehhelpers.obj
 0004:0000066c       $pdata$__vcrt_freefls      000000018002966c     libvcruntime:per_thread_data.obj
 0004:00000678       $pdata$__vcrt_freeptd      0000000180029678     libvcruntime:per_thread_data.obj
 0004:00000684       $pdata$__vcrt_getptd_noexit 0000000180029684     libvcruntime:per_thread_data.obj
 0004:00000690       $pdata$__vcrt_initialize_ptd 0000000180029690     libvcruntime:per_thread_data.obj
 0004:0000069c       $pdata$__vcrt_uninitialize_ptd 000000018002969c     libvcruntime:per_thread_data.obj
 0004:000006a8       $pdata$__vcrt_initialize_locks 00000001800296a8     libvcruntime:locks.obj
 0004:000006b4       $pdata$__vcrt_uninitialize_locks 00000001800296b4     libvcruntime:locks.obj
 0004:000006c0       $pdata$?try_get_function@@YAPEAXW4function_id@?A0x14c33c87@@QEBDQEBW4module_id@2@2@Z 00000001800296c0     libvcruntime:winapi_downlevel.obj
 0004:000006cc       $pdata$__vcrt_FlsAlloc     00000001800296cc     libvcruntime:winapi_downlevel.obj
 0004:000006d8       $pdata$__vcrt_FlsFree      00000001800296d8     libvcruntime:winapi_downlevel.obj
 0004:000006e4       $pdata$__vcrt_FlsGetValue  00000001800296e4     libvcruntime:winapi_downlevel.obj
 0004:000006f0       $pdata$__vcrt_FlsSetValue  00000001800296f0     libvcruntime:winapi_downlevel.obj
 0004:000006fc       $pdata$__vcrt_InitializeCriticalSectionEx 00000001800296fc     libvcruntime:winapi_downlevel.obj
 0004:00000708       $pdata$__vcrt_initialize_winapi_thunks 0000000180029708     libvcruntime:winapi_downlevel.obj
 0004:00000714       $pdata$__vcrt_uninitialize_winapi_thunks 0000000180029714     libvcruntime:winapi_downlevel.obj
 0004:00000750       $pdata$??$?RV<lambda_0d412022a4b28cc8a401ea49574e8ae6>@@AEAV<lambda_a775ed57af18ba8e4d5dc780aa9068fe>@@V<lambda_975a71a6baa488a08f4e15f6b0339b9e>@@@?$__crt_seh_guarded_call@H@@QEAAH$$QEAV<lambda_0d412022a4b28cc8a401ea49574e8ae6>@@AEAV<lambda_a775ed57af18ba8e4d5dc780aa9068fe>@@$$QEAV<lambda_975a71a6baa488a08f4e15f6b0339b9e>@@@Z 0000000180029750     libucrt:output.obj
 0004:0000075c       $pdata$??$common_vsprintf@Vstandard_base@__crt_stdio_output@@D@@YAH_KQEAD0QEBDQEAU__crt_locale_pointers@@1@Z 000000018002975c     libucrt:output.obj
 0004:00000768       $pdata$??$common_vsprintf@Vstandard_base@__crt_stdio_output@@_W@@YAH_KQEA_W0QEB_WQEAU__crt_locale_pointers@@QEAD@Z 0000000180029768     libucrt:output.obj
 0004:00000774       $pdata$??$ensure_buffer_is_big_enough@D@formatting_buffer@__crt_stdio_output@@QEAA_N_K@Z 0000000180029774     libucrt:output.obj
 0004:00000780       $pdata$??$ensure_buffer_is_big_enough@_W@formatting_buffer@__crt_stdio_output@@QEAA_N_K@Z 0000000180029780     libucrt:output.obj
 0004:0000078c       $pdata$??$type_case_integer_parse_into_buffer@I@?$output_processor@DV?$string_output_adapter@D@__crt_stdio_output@@V?$standard_base@DV?$string_output_adapter@D@__crt_stdio_output@@@2@@__crt_stdio_output@@AEAAXII_N@Z 000000018002978c     libucrt:output.obj
 0004:00000798       $pdata$??$type_case_integer_parse_into_buffer@I@?$output_processor@_WV?$stream_output_adapter@_W@__crt_stdio_output@@V?$standard_base@_WV?$stream_output_adapter@_W@__crt_stdio_output@@@2@@__crt_stdio_output@@AEAAXII_N@Z 0000000180029798     libucrt:output.obj
 0004:00000798       $pdata$??$type_case_integer_parse_into_buffer@I@?$output_processor@_WV?$string_output_adapter@_W@__crt_stdio_output@@V?$standard_base@_WV?$string_output_adapter@_W@__crt_stdio_output@@@2@@__crt_stdio_output@@AEAAXII_N@Z 0000000180029798     libucrt:output.obj
 0004:000007a4       $pdata$??$type_case_integer_parse_into_buffer@_K@?$output_processor@DV?$string_output_adapter@D@__crt_stdio_output@@V?$standard_base@DV?$string_output_adapter@D@__crt_stdio_output@@@2@@__crt_stdio_output@@AEAAX_KI_N@Z 00000001800297a4     libucrt:output.obj
 0004:000007b0       $pdata$??$type_case_integer_parse_into_buffer@_K@?$output_processor@_WV?$string_output_adapter@_W@__crt_stdio_output@@V?$standard_base@_WV?$string_output_adapter@_W@__crt_stdio_output@@@2@@__crt_stdio_output@@AEAAX_KI_N@Z 00000001800297b0     libucrt:output.obj
 0004:000007b0       $pdata$??$type_case_integer_parse_into_buffer@_K@?$output_processor@_WV?$stream_output_adapter@_W@__crt_stdio_output@@V?$standard_base@_WV?$stream_output_adapter@_W@__crt_stdio_output@@@2@@__crt_stdio_output@@AEAAX_KI_N@Z 00000001800297b0     libucrt:output.obj
 0004:000007bc       $pdata$??$write_multiple_characters@V?$stream_output_adapter@_W@__crt_stdio_output@@D@__crt_stdio_output@@YAXAEBV?$stream_output_adapter@_W@0@DHQEAH@Z 00000001800297bc     libucrt:output.obj
 0004:000007c8       $pdata$??$write_multiple_characters@V?$string_output_adapter@D@__crt_stdio_output@@D@__crt_stdio_output@@YAXAEBV?$string_output_adapter@D@0@DHQEAH@Z 00000001800297c8     libucrt:output.obj
 0004:000007d4       $pdata$??$write_multiple_characters@V?$string_output_adapter@_W@__crt_stdio_output@@D@__crt_stdio_output@@YAXAEBV?$string_output_adapter@_W@0@DHQEAH@Z 00000001800297d4     libucrt:output.obj
 0004:000007e0       $pdata$??0_LocaleUpdate@@QEAA@QEAU__crt_locale_pointers@@@Z 00000001800297e0     libucrt:output.obj
 0004:000007ec       $pdata$??R<lambda_a775ed57af18ba8e4d5dc780aa9068fe>@@QEBAHXZ 00000001800297ec     libucrt:output.obj
 0004:000007f8       $pdata$?force_decimal_point@__crt_stdio_output@@YAXPEADQEAU__crt_locale_pointers@@@Z 00000001800297f8     libucrt:output.obj
 0004:00000804       $pdata$?parse_int_from_format_string@?$output_processor@DV?$string_output_adapter@D@__crt_stdio_output@@V?$standard_base@DV?$string_output_adapter@D@__crt_stdio_output@@@2@@__crt_stdio_output@@AEAA_NQEAH@Z 0000000180029804     libucrt:output.obj
 0004:00000810       $pdata$?parse_int_from_format_string@?$output_processor@_WV?$stream_output_adapter@_W@__crt_stdio_output@@V?$standard_base@_WV?$stream_output_adapter@_W@__crt_stdio_output@@@2@@__crt_stdio_output@@AEAA_NQEAH@Z 0000000180029810     libucrt:output.obj
 0004:00000810       $pdata$?parse_int_from_format_string@?$output_processor@_WV?$string_output_adapter@_W@__crt_stdio_output@@V?$standard_base@_WV?$string_output_adapter@_W@__crt_stdio_output@@@2@@__crt_stdio_output@@AEAA_NQEAH@Z 0000000180029810     libucrt:output.obj
 0004:0000081c       $pdata$?process@?$output_processor@DV?$string_output_adapter@D@__crt_stdio_output@@V?$standard_base@DV?$string_output_adapter@D@__crt_stdio_output@@@2@@__crt_stdio_output@@QEAAHXZ 000000018002981c     libucrt:output.obj
 0004:00000828       $pdata$?process@?$output_processor@_WV?$stream_output_adapter@_W@__crt_stdio_output@@V?$standard_base@_WV?$stream_output_adapter@_W@__crt_stdio_output@@@2@@__crt_stdio_output@@QEAAHXZ 0000000180029828     libucrt:output.obj
 0004:00000834       $pdata$?process@?$output_processor@_WV?$string_output_adapter@_W@__crt_stdio_output@@V?$standard_base@_WV?$string_output_adapter@_W@__crt_stdio_output@@@2@@__crt_stdio_output@@QEAAHXZ 0000000180029834     libucrt:output.obj
 0004:00000840       $pdata$?state_case_normal@?$output_processor@DV?$string_output_adapter@D@__crt_stdio_output@@V?$standard_base@DV?$string_output_adapter@D@__crt_stdio_output@@@2@@__crt_stdio_output@@AEAA_NXZ 0000000180029840     libucrt:output.obj
 0004:0000084c       $pdata$?state_case_normal_tchar@?$output_processor@DV?$string_output_adapter@D@__crt_stdio_output@@V?$standard_base@DV?$string_output_adapter@D@__crt_stdio_output@@@2@@__crt_stdio_output@@AEAA_ND@Z 000000018002984c     libucrt:output.obj
 0004:00000858       $pdata$?state_case_size@?$output_processor@DV?$string_output_adapter@D@__crt_stdio_output@@V?$standard_base@DV?$string_output_adapter@D@__crt_stdio_output@@@2@@__crt_stdio_output@@AEAA_NXZ 0000000180029858     libucrt:output.obj
 0004:00000864       $pdata$?state_case_size@?$output_processor@_WV?$stream_output_adapter@_W@__crt_stdio_output@@V?$standard_base@_WV?$stream_output_adapter@_W@__crt_stdio_output@@@2@@__crt_stdio_output@@AEAA_NXZ 0000000180029864     libucrt:output.obj
 0004:00000870       $pdata$?state_case_size@?$output_processor@_WV?$string_output_adapter@_W@__crt_stdio_output@@V?$standard_base@_WV?$string_output_adapter@_W@__crt_stdio_output@@@2@@__crt_stdio_output@@AEAA_NXZ 0000000180029870     libucrt:output.obj
 0004:0000087c       $pdata$?state_case_type@?$output_processor@DV?$string_output_adapter@D@__crt_stdio_output@@V?$standard_base@DV?$string_output_adapter@D@__crt_stdio_output@@@2@@__crt_stdio_output@@AEAA_NXZ 000000018002987c     libucrt:output.obj
 0004:00000888       $pdata$?state_case_type@?$output_processor@_WV?$stream_output_adapter@_W@__crt_stdio_output@@V?$standard_base@_WV?$stream_output_adapter@_W@__crt_stdio_output@@@2@@__crt_stdio_output@@AEAA_NXZ 0000000180029888     libucrt:output.obj
 0004:00000894       $pdata$?state_case_type@?$output_processor@_WV?$string_output_adapter@_W@__crt_stdio_output@@V?$standard_base@_WV?$string_output_adapter@_W@__crt_stdio_output@@@2@@__crt_stdio_output@@AEAA_NXZ 0000000180029894     libucrt:output.obj
 0004:000008a0       $pdata$?type_case_Z@?$output_processor@_WV?$string_output_adapter@_W@__crt_stdio_output@@V?$standard_base@_WV?$string_output_adapter@_W@__crt_stdio_output@@@2@@__crt_stdio_output@@AEAA_NXZ 00000001800298a0     libucrt:output.obj
 0004:000008a0       $pdata$?type_case_Z@?$output_processor@_WV?$stream_output_adapter@_W@__crt_stdio_output@@V?$standard_base@_WV?$stream_output_adapter@_W@__crt_stdio_output@@@2@@__crt_stdio_output@@AEAA_NXZ 00000001800298a0     libucrt:output.obj
 0004:000008ac       $pdata$?type_case_a@?$output_processor@DV?$string_output_adapter@D@__crt_stdio_output@@V?$standard_base@DV?$string_output_adapter@D@__crt_stdio_output@@@2@@__crt_stdio_output@@AEAA_NXZ 00000001800298ac     libucrt:output.obj
 0004:000008b8       $pdata$?type_case_a@?$output_processor@_WV?$stream_output_adapter@_W@__crt_stdio_output@@V?$standard_base@_WV?$stream_output_adapter@_W@__crt_stdio_output@@@2@@__crt_stdio_output@@AEAA_NXZ 00000001800298b8     libucrt:output.obj
 0004:000008b8       $pdata$?type_case_a@?$output_processor@_WV?$string_output_adapter@_W@__crt_stdio_output@@V?$standard_base@_WV?$string_output_adapter@_W@__crt_stdio_output@@@2@@__crt_stdio_output@@AEAA_NXZ 00000001800298b8     libucrt:output.obj
 0004:000008c4       $pdata$?type_case_c_tchar@?$output_processor@DV?$string_output_adapter@D@__crt_stdio_output@@V?$standard_base@DV?$string_output_adapter@D@__crt_stdio_output@@@2@@__crt_stdio_output@@AEAA_ND@Z 00000001800298c4     libucrt:output.obj
 0004:000008d0       $pdata$?type_case_c_tchar@?$output_processor@_WV?$string_output_adapter@_W@__crt_stdio_output@@V?$standard_base@_WV?$string_output_adapter@_W@__crt_stdio_output@@@2@@__crt_stdio_output@@AEAA_N_W@Z 00000001800298d0     libucrt:output.obj
 0004:000008d0       $pdata$?type_case_c_tchar@?$output_processor@_WV?$stream_output_adapter@_W@__crt_stdio_output@@V?$standard_base@_WV?$stream_output_adapter@_W@__crt_stdio_output@@@2@@__crt_stdio_output@@AEAA_N_W@Z 00000001800298d0     libucrt:output.obj
 0004:000008dc       $pdata$?type_case_integer@?$output_processor@DV?$string_output_adapter@D@__crt_stdio_output@@V?$standard_base@DV?$string_output_adapter@D@__crt_stdio_output@@@2@@__crt_stdio_output@@AEAA_NI_N@Z 00000001800298dc     libucrt:output.obj
 0004:000008e8       $pdata$?type_case_integer@?$output_processor@_WV?$string_output_adapter@_W@__crt_stdio_output@@V?$standard_base@_WV?$string_output_adapter@_W@__crt_stdio_output@@@2@@__crt_stdio_output@@AEAA_NI_N@Z 00000001800298e8     libucrt:output.obj
 0004:000008e8       $pdata$?type_case_integer@?$output_processor@_WV?$stream_output_adapter@_W@__crt_stdio_output@@V?$standard_base@_WV?$stream_output_adapter@_W@__crt_stdio_output@@@2@@__crt_stdio_output@@AEAA_NI_N@Z 00000001800298e8     libucrt:output.obj
 0004:000008f4       $pdata$?type_case_n@?$output_processor@DV?$string_output_adapter@D@__crt_stdio_output@@V?$standard_base@DV?$string_output_adapter@D@__crt_stdio_output@@@2@@__crt_stdio_output@@AEAA_NXZ 00000001800298f4     libucrt:output.obj
 0004:000008f4       $pdata$?type_case_n@?$output_processor@_WV?$string_output_adapter@_W@__crt_stdio_output@@V?$standard_base@_WV?$string_output_adapter@_W@__crt_stdio_output@@@2@@__crt_stdio_output@@AEAA_NXZ 00000001800298f4     libucrt:output.obj
 0004:000008f4       $pdata$?type_case_n@?$output_processor@_WV?$stream_output_adapter@_W@__crt_stdio_output@@V?$standard_base@_WV?$stream_output_adapter@_W@__crt_stdio_output@@@2@@__crt_stdio_output@@AEAA_NXZ 00000001800298f4     libucrt:output.obj
 0004:00000900       $pdata$?type_case_s@?$output_processor@DV?$string_output_adapter@D@__crt_stdio_output@@V?$standard_base@DV?$string_output_adapter@D@__crt_stdio_output@@@2@@__crt_stdio_output@@AEAA_NXZ 0000000180029900     libucrt:output.obj
 0004:0000090c       $pdata$?type_case_s@?$output_processor@_WV?$string_output_adapter@_W@__crt_stdio_output@@V?$standard_base@_WV?$string_output_adapter@_W@__crt_stdio_output@@@2@@__crt_stdio_output@@AEAA_NXZ 000000018002990c     libucrt:output.obj
 0004:0000090c       $pdata$?type_case_s@?$output_processor@_WV?$stream_output_adapter@_W@__crt_stdio_output@@V?$standard_base@_WV?$stream_output_adapter@_W@__crt_stdio_output@@@2@@__crt_stdio_output@@AEAA_NXZ 000000018002990c     libucrt:output.obj
 0004:00000918       $pdata$?write_stored_string_tchar@?$output_processor@DV?$string_output_adapter@D@__crt_stdio_output@@V?$standard_base@DV?$string_output_adapter@D@__crt_stdio_output@@@2@@__crt_stdio_output@@AEAA_ND@Z 0000000180029918     libucrt:output.obj
 0004:00000924       $pdata$?write_stored_string_tchar@?$output_processor@_WV?$stream_output_adapter@_W@__crt_stdio_output@@V?$standard_base@_WV?$stream_output_adapter@_W@__crt_stdio_output@@@2@@__crt_stdio_output@@AEAA_N_W@Z 0000000180029924     libucrt:output.obj
 0004:00000930       $pdata$?write_stored_string_tchar@?$output_processor@_WV?$string_output_adapter@_W@__crt_stdio_output@@V?$standard_base@_WV?$string_output_adapter@_W@__crt_stdio_output@@@2@@__crt_stdio_output@@AEAA_N_W@Z 0000000180029930     libucrt:output.obj
 0004:0000093c       $pdata$?write_string@?$string_output_adapter@D@__crt_stdio_output@@QEBAXQEBDHQEAHAEAV__crt_deferred_errno_cache@@@Z 000000018002993c     libucrt:output.obj
 0004:00000948       $pdata$?write_string@?$string_output_adapter@_W@__crt_stdio_output@@QEBAXQEB_WHQEAHAEAV__crt_deferred_errno_cache@@@Z 0000000180029948     libucrt:output.obj
 0004:00000954       $pdata$?write_string_impl@?$output_adapter_common@_WV?$stream_output_adapter@_W@__crt_stdio_output@@@__crt_stdio_output@@IEBAXQEB_WHQEAHAEAV__crt_deferred_errno_cache@@@Z 0000000180029954     libucrt:output.obj
 0004:00000960       $pdata$__stdio_common_vfwprintf 0000000180029960     libucrt:output.obj
 0004:0000096c       $pdata$??$parse_integer@KV?$c_string_character_source@D@__crt_strtox@@@__crt_strtox@@YAKQEAU__crt_locale_pointers@@V?$c_string_character_source@D@0@H_N@Z 000000018002996c     libucrt:atox.obj
 0004:00000978       $pdata$??$parse_integer@KV?$c_string_character_source@_W@__crt_strtox@@@__crt_strtox@@YAKQEAU__crt_locale_pointers@@V?$c_string_character_source@_W@0@H_N@Z 0000000180029978     libucrt:atox.obj
 0004:00000984       $pdata$atoi                0000000180029984     libucrt:atox.obj
 0004:00000990       $pdata$??$common_assert_to_message_box@_W@@YAXQEB_W0IQEAX@Z 0000000180029990     libucrt:assert.obj
 0004:0000099c       $pdata$??$common_assert_to_message_box_build_string@_W@@YAXQEA_W_KQEB_W2IQEAX@Z 000000018002999c     libucrt:assert.obj
 0004:000009a8       $pdata$??$common_assert_to_stderr@_W@@YAXQEB_W0I@Z 00000001800299a8     libucrt:assert.obj
 0004:000009b4       $pdata$_wassert            00000001800299b4     libucrt:assert.obj
 0004:000009c0       $pdata$fwprintf            00000001800299c0     libucrt:assert.obj
 0004:000009cc       $pdata$swprintf            00000001800299cc     libucrt:assert.obj
 0004:000009d8       $pdata$__acrt_call_reportfault 00000001800299d8     libucrt:invalid_parameter.obj
 0004:000009e4       $pdata$_invalid_parameter  00000001800299e4     libucrt:invalid_parameter.obj
 0004:000009f0       $pdata$_invalid_parameter_noinfo 00000001800299f0     libucrt:invalid_parameter.obj
 0004:000009fc       $pdata$_invalid_parameter_noinfo_noreturn 00000001800299fc     libucrt:invalid_parameter.obj
 0004:00000a08       $pdata$_invoke_watson      0000000180029a08     libucrt:invalid_parameter.obj
 0004:00000a14       $pdata$_stricmp            0000000180029a14     libucrt:stricmp.obj
 0004:00000a20       $pdata$_stricmp_l          0000000180029a20     libucrt:stricmp.obj
 0004:00000a2c       $pdata$_callnewh           0000000180029a2c     libucrt:new_handler.obj
 0004:00000a38       $pdata$_query_new_handler  0000000180029a38     libucrt:new_handler.obj
 0004:00000a44       $pdata$_initterm           0000000180029a44     libucrt:initterm.obj
 0004:00000a50       $pdata$_initterm_e         0000000180029a50     libucrt:initterm.obj
 0004:00000a5c       $pdata$_seh_filter_exe     0000000180029a5c     libucrt:exception_filter.obj
 0004:00000a68       $pdata$??$?RV<lambda_d80eeec6fff315bfe5c115232f3240e3>@@AEAV<lambda_6e4b09c48022b2350581041d5f6b0c4c>@@V<lambda_2358e3775559c9db80273638284d5e45>@@@?$__crt_seh_guarded_call@X@@QEAAX$$QEAV<lambda_d80eeec6fff315bfe5c115232f3240e3>@@AEAV<lambda_6e4b09c48022b2350581041d5f6b0c4c>@@$$QEAV<lambda_2358e3775559c9db80273638284d5e45>@@@Z 0000000180029a68     libucrt:exit.obj
 0004:00000a74       $pdata$??R<lambda_6e4b09c48022b2350581041d5f6b0c4c>@@QEBA@XZ 0000000180029a74     libucrt:exit.obj
 0004:00000a80       $pdata$?common_exit@@YAXHW4_crt_exit_cleanup_mode@@W4_crt_exit_return_mode@@@Z 0000000180029a80     libucrt:exit.obj
 0004:00000a8c       $pdata$?exit_or_terminate_process@@YAXI@Z 0000000180029a8c     libucrt:exit.obj
 0004:00000a98       $pdata$?try_cor_exit_process@@YAXI@Z 0000000180029a98     libucrt:exit.obj
 0004:00000aa4       $pdata$??$parse_command_line@D@@YAXPEADPEAPEAD0PEA_K2@Z 0000000180029aa4     libucrt:argv_parsing.obj
 0004:00000ab0       $pdata$__acrt_allocate_buffer_for_argv 0000000180029ab0     libucrt:argv_parsing.obj
 0004:00000abc       $pdata$_configure_narrow_argv 0000000180029abc     libucrt:argv_parsing.obj
 0004:00000ac8       $pdata$??$common_initialize_environment_nolock@D@@YAHXZ 0000000180029ac8     libucrt:environment_initialization.obj
 0004:00000ad4       $pdata$??$create_environment@D@@YAQEAPEADQEAD@Z 0000000180029ad4     libucrt:environment_initialization.obj
 0004:00000ae0       $pdata$??$free_environment@_W@@YAXQEAPEA_W@Z 0000000180029ae0     libucrt:environment_initialization.obj
 0004:00000ae0       $pdata$??$free_environment@D@@YAXQEAPEAD@Z 0000000180029ae0     libucrt:environment_initialization.obj
 0004:00000aec       $pdata$??$uninitialize_environment_internal@D@@YAXAEAPEAPEAD@Z 0000000180029aec     libucrt:environment_initialization.obj
 0004:00000af8       $pdata$??$uninitialize_environment_internal@_W@@YAXAEAPEAPEA_W@Z 0000000180029af8     libucrt:environment_initialization.obj
 0004:00000b04       $pdata$__dcrt_uninitialize_environments_nolock 0000000180029b04     libucrt:environment_initialization.obj
 0004:00000b10       $pdata$??$?RV<lambda_7777bce6b2f8c936911f934f8298dc43>@@AEAV<lambda_f03950bc5685219e0bcd2087efbe011e>@@V<lambda_3883c3dff614d5e0c5f61bb1ac94921c>@@@?$__crt_seh_guarded_call@H@@QEAAH$$QEAV<lambda_7777bce6b2f8c936911f934f8298dc43>@@AEAV<lambda_f03950bc5685219e0bcd2087efbe011e>@@$$QEAV<lambda_3883c3dff614d5e0c5f61bb1ac94921c>@@@Z 0000000180029b10     libucrt:onexit.obj
 0004:00000b1c       $pdata$??R<lambda_f03950bc5685219e0bcd2087efbe011e>@@QEBAHXZ 0000000180029b1c     libucrt:onexit.obj
 0004:00000b28       $pdata$_execute_onexit_table 0000000180029b28     libucrt:onexit.obj
 0004:00000b34       $pdata$initialize_c        0000000180029b34     libucrt:initialization.obj
 0004:00000b40       $pdata$uninitialize_environment 0000000180029b40     libucrt:initialization.obj
 0004:00000b4c       $pdata$initialize_pointers 0000000180029b4c     libucrt:initialization.obj
 0004:00000b58       $pdata$uninitialize_allocated_memory 0000000180029b58     libucrt:initialization.obj
 0004:00000b64       $pdata$uninitialize_allocated_io_buffers 0000000180029b64     libucrt:initialization.obj
 0004:00000b70       $pdata$__acrt_thread_attach 0000000180029b70     libucrt:initialization.obj
 0004:00000b7c       $pdata$__acrt_thread_detach 0000000180029b7c     libucrt:initialization.obj
 0004:00000b88       $pdata$__acrt_uninitialize 0000000180029b88     libucrt:initialization.obj
 0004:00000b94       $pdata$__acrt_uninitialize_critical 0000000180029b94     libucrt:initialization.obj
 0004:00000ba0       $pdata$terminate           0000000180029ba0     libucrt:terminate.obj
 0004:00000bac       $pdata$abort               0000000180029bac     libucrt:abort.obj
 0004:00000bb8       $pdata$strcpy_s            0000000180029bb8     libucrt:strcpy_s.obj
 0004:00000bd0       $pdata$isdigit             0000000180029bd0     libucrt:_ctype.obj
 0004:00000bdc       $pdata$?internal_isupper_l@@YA_NHQEAU__crt_locale_pointers@@@Z 0000000180029bdc     libucrt:tolower_toupper.obj
 0004:00000be8       $pdata$_tolower_l          0000000180029be8     libucrt:tolower_toupper.obj
 0004:00000bf4       $pdata$tolower             0000000180029bf4     libucrt:tolower_toupper.obj
 0004:00000c00       $pdata$__acrt_errno_map_os_error 0000000180029c00     libucrt:errno.obj
 0004:00000c0c       $pdata$__doserrno          0000000180029c0c     libucrt:errno.obj
 0004:00000c18       $pdata$_errno              0000000180029c18     libucrt:errno.obj
 0004:00000c24       $pdata$_free_base          0000000180029c24     libucrt:free_base.obj
 0004:00000c30       $pdata$_malloc_base        0000000180029c30     libucrt:malloc_base.obj
 0004:00000c3c       $pdata$strtol              0000000180029c3c     libucrt:strtox.obj
 0004:00000c48       $pdata$wcstol              0000000180029c48     libucrt:strtox.obj
 0004:00000c54       $pdata$_mbtowc_l           0000000180029c54     libucrt:mbtowc.obj
 0004:00000c60       $pdata$_wctomb_s_l         0000000180029c60     libucrt:wctomb.obj
 0004:00000c6c       $pdata$wctomb_s            0000000180029c6c     libucrt:wctomb.obj
 0004:00000c78       $pdata$??$?RV<lambda_0ae27a3a962d80f24befdcbee591983d>@@AEAV<lambda_8d0ee55de4b1038c4002e0adecdf1839>@@V<lambda_dc504788e8f1664fe9b84e20bfb512f2>@@@?$__crt_seh_guarded_call@X@@QEAAX$$QEAV<lambda_0ae27a3a962d80f24befdcbee591983d>@@AEAV<lambda_8d0ee55de4b1038c4002e0adecdf1839>@@$$QEAV<lambda_dc504788e8f1664fe9b84e20bfb512f2>@@@Z 0000000180029c78     libucrt:per_thread_data.obj
 0004:00000c84       $pdata$??$?RV<lambda_2d41944a1d46af3157314b8a01080d33>@@AEAV<lambda_8f455de75cd7d7f24b4096f044d8b9e6>@@V<lambda_aa500f224e6afead328df44964fe2772>@@@?$__crt_seh_guarded_call@X@@QEAAX$$QEAV<lambda_2d41944a1d46af3157314b8a01080d33>@@AEAV<lambda_8f455de75cd7d7f24b4096f044d8b9e6>@@$$QEAV<lambda_aa500f224e6afead328df44964fe2772>@@@Z 0000000180029c84     libucrt:per_thread_data.obj
 0004:00000c90       $pdata$??$?RV<lambda_aa87e3671a710a21b5dc78c0bdf72e11>@@AEAV<lambda_92619d2358a28f41a33ba319515a20b9>@@V<lambda_6992ecaafeb10aed2b74cb1fae11a551>@@@?$__crt_seh_guarded_call@X@@QEAAX$$QEAV<lambda_aa87e3671a710a21b5dc78c0bdf72e11>@@AEAV<lambda_92619d2358a28f41a33ba319515a20b9>@@$$QEAV<lambda_6992ecaafeb10aed2b74cb1fae11a551>@@@Z 0000000180029c90     libucrt:per_thread_data.obj
 0004:00000c9c       $pdata$??$?RV<lambda_f2e299630e499de9f9a165e60fcd3db5>@@AEAV<lambda_2ae9d31cdba2644fcbeaf08da7c24588>@@V<lambda_40d01ff24d0e7b3814fdbdcee8eab3c7>@@@?$__crt_seh_guarded_call@X@@QEAAX$$QEAV<lambda_f2e299630e499de9f9a165e60fcd3db5>@@AEAV<lambda_2ae9d31cdba2644fcbeaf08da7c24588>@@$$QEAV<lambda_40d01ff24d0e7b3814fdbdcee8eab3c7>@@@Z 0000000180029c9c     libucrt:per_thread_data.obj
 0004:00000ca8       $pdata$?construct_ptd_array@@YAXQEAU__acrt_ptd@@@Z 0000000180029ca8     libucrt:per_thread_data.obj
 0004:00000cb4       $pdata$?destroy_fls@@YAXPEAX@Z 0000000180029cb4     libucrt:per_thread_data.obj
 0004:00000cc0       $pdata$?destroy_ptd_array@@YAXQEAU__acrt_ptd@@@Z 0000000180029cc0     libucrt:per_thread_data.obj
 0004:00000ccc       $pdata$?replace_current_thread_locale_nolock@@YAXQEAU__acrt_ptd@@QEAU__crt_locale_data@@@Z 0000000180029ccc     libucrt:per_thread_data.obj
 0004:00000cd8       $pdata$__acrt_freeptd      0000000180029cd8     libucrt:per_thread_data.obj
 0004:00000ce4       $pdata$__acrt_getptd       0000000180029ce4     libucrt:per_thread_data.obj
 0004:00000cf0       $pdata$__acrt_getptd_head  0000000180029cf0     libucrt:per_thread_data.obj
 0004:00000cfc       $pdata$__acrt_getptd_noexit 0000000180029cfc     libucrt:per_thread_data.obj
 0004:00000d08       $pdata$__acrt_initialize_ptd 0000000180029d08     libucrt:per_thread_data.obj
 0004:00000d14       $pdata$__acrt_uninitialize_ptd 0000000180029d14     libucrt:per_thread_data.obj
 0004:00000d20       $pdata$__acrt_update_locale_info 0000000180029d20     libucrt:locale_update.obj
 0004:00000d2c       $pdata$__acrt_update_multibyte_info 0000000180029d2c     libucrt:locale_update.obj
 0004:00000d38       $pdata$?fp_format_a@@YAHQEBNPEAD_KQEAD2H_NIQEAU__crt_locale_pointers@@@Z 0000000180029d38     libucrt:cvt.obj
 0004:00000d44       $pdata$?fp_format_e@@YAHQEBNQEAD_K12H_NIQEAU__crt_locale_pointers@@@Z 0000000180029d44     libucrt:cvt.obj
 0004:00000d50       $pdata$?fp_format_e_internal@@YAHQEAD_KH_NIQEAU_strflt@@2QEAU__crt_locale_pointers@@@Z 0000000180029d50     libucrt:cvt.obj
 0004:00000d5c       $pdata$?fp_format_f_internal@@YAHQEAD_KHQEAU_strflt@@_NQEAU__crt_locale_pointers@@@Z 0000000180029d5c     libucrt:cvt.obj
 0004:00000d68       $pdata$?fp_format_g@@YAHQEBNQEAD_K12H_NIQEAU__crt_locale_pointers@@@Z 0000000180029d68     libucrt:cvt.obj
 0004:00000d74       $pdata$?fp_format_nan_or_infinity@@YAHW4__acrt_fp_class@@_NPEAD_K1@Z 0000000180029d74     libucrt:cvt.obj
 0004:00000d80       $pdata$__acrt_fp_format    0000000180029d80     libucrt:cvt.obj
 0004:00000d8c       $pdata$_fputwc_nolock      0000000180029d8c     libucrt:fputwc.obj
 0004:00000d98       $pdata$_fileno             0000000180029d98     libucrt:fileno.obj
 0004:00000da4       $pdata$__acrt_initialize_stdio 0000000180029da4     libucrt:_file.obj
 0004:00000db0       $pdata$__acrt_uninitialize_stdio 0000000180029db0     libucrt:_file.obj
 0004:00000dbc       $pdata$__acrt_stdio_begin_temporary_buffering_nolock 0000000180029dbc     libucrt:_sftbuf.obj
 0004:00000dc8       $pdata$__acrt_stdio_end_temporary_buffering_nolock 0000000180029dc8     libucrt:_sftbuf.obj
 0004:00000dd4       $pdata$??$?RV<lambda_410d79af7f07d98d83a3f525b3859a53>@@AEAV<lambda_3e16ef9562a7dcce91392c22ab16ea36>@@V<lambda_38119f0e861e05405d8a144b9b982f0a>@@@?$__crt_seh_guarded_call@X@@QEAAX$$QEAV<lambda_410d79af7f07d98d83a3f525b3859a53>@@AEAV<lambda_3e16ef9562a7dcce91392c22ab16ea36>@@$$QEAV<lambda_38119f0e861e05405d8a144b9b982f0a>@@@Z 0000000180029dd4     libucrt:wsetlocale.obj
 0004:00000de0       $pdata$__acrt_uninitialize_locale 0000000180029de0     libucrt:wsetlocale.obj
 0004:00000dec       $pdata$?initialize_inherited_file_handles_nolock@@YAXXZ 0000000180029dec     libucrt:ioinit.obj
 0004:00000df8       $pdata$?initialize_stdio_handles_nolock@@YAXXZ 0000000180029df8     libucrt:ioinit.obj
 0004:00000e04       $pdata$__acrt_initialize_lowio 0000000180029e04     libucrt:ioinit.obj
 0004:00000e10       $pdata$__acrt_uninitialize_lowio 0000000180029e10     libucrt:ioinit.obj
 0004:00000e1c       $pdata$__pctype_func       0000000180029e1c     libucrt:ctype.obj
 0004:00000e28       $pdata$iswctype            0000000180029e28     libucrt:iswctype.obj
 0004:00000e34       $pdata$_isctype_l          0000000180029e34     libucrt:isctype.obj
 0004:00000e40       $pdata$??$common_xtox@K_W@@YAHKQEA_W_KI_N@Z 0000000180029e40     libucrt:xtoa.obj
 0004:00000e4c       $pdata$??$common_xtox_s@K_W@@YAHKQEA_W_KI_N@Z 0000000180029e4c     libucrt:xtoa.obj
 0004:00000e58       $pdata$_itow_s             0000000180029e58     libucrt:xtoa.obj
 0004:00000e64       $pdata$_set_error_mode     0000000180029e64     libucrt:set_error_mode.obj
 0004:00000e70       $pdata$wcscat_s            0000000180029e70     libucrt:wcscat_s.obj
 0004:00000e7c       $pdata$wcscpy_s            0000000180029e7c     libucrt:wcscpy_s.obj
 0004:00000e88       $pdata$wcsncat_s           0000000180029e88     libucrt:wcsncat_s.obj
 0004:00000e94       $pdata$__acrt_show_wide_message_box 0000000180029e94     libucrt:crtmbox.obj
 0004:00000ea0       $pdata$??$?RV<lambda_842d9ff0dc9ef11c61343bbaebe7f885>@@AEAV<lambda_c5860995281e5c4ce005b3de8f5874ee>@@V<lambda_d90129c13df834fdcbf8d2b88dafcf2d>@@@?$__crt_seh_guarded_call@X@@QEAAX$$QEAV<lambda_842d9ff0dc9ef11c61343bbaebe7f885>@@AEAV<lambda_c5860995281e5c4ce005b3de8f5874ee>@@$$QEAV<lambda_d90129c13df834fdcbf8d2b88dafcf2d>@@@Z 0000000180029ea0     libucrt:fflush.obj
 0004:00000eac       $pdata$??$?RV<lambda_886d6c58226a84441f68b9f2b8217b83>@@AEAV<lambda_ab61a845afdef5b7c387490eaf3616ee>@@V<lambda_f7f22ab5edc0698d5f6905b0d3f44752>@@@?$__crt_seh_guarded_call@X@@QEAAX$$QEAV<lambda_886d6c58226a84441f68b9f2b8217b83>@@AEAV<lambda_ab61a845afdef5b7c387490eaf3616ee>@@$$QEAV<lambda_f7f22ab5edc0698d5f6905b0d3f44752>@@@Z 0000000180029eac     libucrt:fflush.obj
 0004:00000eb8       $pdata$??$?RV<lambda_c376a267cfb53b6959b3b692ec76b120>@@AEAV<lambda_9a32fed5bf61b6b509b2d3f6003082a1>@@V<lambda_572fbb9fa0ab338edf41edfd4b5fcc8d>@@@?$__crt_seh_guarded_call@H@@QEAAH$$QEAV<lambda_c376a267cfb53b6959b3b692ec76b120>@@AEAV<lambda_9a32fed5bf61b6b509b2d3f6003082a1>@@$$QEAV<lambda_572fbb9fa0ab338edf41edfd4b5fcc8d>@@@Z 0000000180029eb8     libucrt:fflush.obj
 0004:00000ec4       $pdata$?common_flush_all@@YAH_N@Z 0000000180029ec4     libucrt:fflush.obj
 0004:00000ed0       $pdata$__acrt_stdio_flush_nolock 0000000180029ed0     libucrt:fflush.obj
 0004:00000edc       $pdata$_fflush_nolock      0000000180029edc     libucrt:fflush.obj
 0004:00000ee8       $pdata$fflush              0000000180029ee8     libucrt:fflush.obj
 0004:00000ef4       $pdata$??$?RV<lambda_84ec643ea9557e2f7dc01bb0e9624395>@@AEAV<lambda_ca71763b3c0644891230e4f79ea54fa6>@@V<lambda_439a761618c59b0600e24586724d733b>@@@?$__crt_seh_guarded_call@H@@QEAAH$$QEAV<lambda_84ec643ea9557e2f7dc01bb0e9624395>@@AEAV<lambda_ca71763b3c0644891230e4f79ea54fa6>@@$$QEAV<lambda_439a761618c59b0600e24586724d733b>@@@Z 0000000180029ef4     libucrt:setvbuf.obj
 0004:00000f00       $pdata$??R<lambda_ca71763b3c0644891230e4f79ea54fa6>@@QEBAHXZ 0000000180029f00     libucrt:setvbuf.obj
 0004:00000f0c       $pdata$setvbuf             0000000180029f0c     libucrt:setvbuf.obj
 0004:00000f18       $pdata$??$?RV<lambda_450d765d439847d4c735a33c368b5fc0>@@AEAV<lambda_44731a7d0e6d81c3e6aa82d741081786>@@V<lambda_601a2a7da3b7a96e9554ac7215c4b07c>@@@?$__crt_seh_guarded_call@P6AXH@Z@@QEAAP6AXH@Z$$QEAV<lambda_450d765d439847d4c735a33c368b5fc0>@@AEAV<lambda_44731a7d0e6d81c3e6aa82d741081786>@@$$QEAV<lambda_601a2a7da3b7a96e9554ac7215c4b07c>@@@Z 0000000180029f18     libucrt:signal.obj
 0004:00000f24       $pdata$__acrt_get_sigabrt_handler 0000000180029f24     libucrt:signal.obj
 0004:00000f30       $pdata$raise               0000000180029f30     libucrt:signal.obj
 0004:00000f3c       $pdata$__acrt_initialize_locks 0000000180029f3c     libucrt:locks.obj
 0004:00000f48       $pdata$__acrt_uninitialize_locks 0000000180029f48     libucrt:locks.obj
 0004:00000f54       $pdata$__acrt_get_developer_information_policy 0000000180029f54     libucrt:win_policies.obj
 0004:00000f60       $pdata$__acrt_get_process_end_policy 0000000180029f60     libucrt:win_policies.obj
 0004:00000f6c       $pdata$__acrt_get_windowing_model_policy 0000000180029f6c     libucrt:win_policies.obj
 0004:00000f78       $pdata$_calloc_base        0000000180029f78     libucrt:calloc_base.obj
 0004:00000f84       $pdata$??$common_expand_argv_wildcards@D@@YAHQEAPEADQEAPEAPEAD@Z 0000000180029f84     libucrt:argv_wildcards.obj
 0004:00000f90       $pdata$??$copy_and_add_argument_to_buffer@D@@YAHQEBD0_KAEAV?$argument_list@D@?A0x5f5c8891@@@Z 0000000180029f90     libucrt:argv_wildcards.obj
 0004:00000f9c       $pdata$??$expand_argument_wildcards@D@@YAHQEAD0AEAV?$argument_list@D@?A0x5f5c8891@@@Z 0000000180029f9c     libucrt:argv_wildcards.obj
 0004:00000fa8       $pdata$??$?RV<lambda_efdfa57d1f175319df784efa44bb7b81>@@AEAV<lambda_5f0a4c1567f8adc6734073e5d1e1b35c>@@V<lambda_2e8a7d3640ea6ccb4c2413664c2db6fd>@@@?$__crt_seh_guarded_call@X@@QEAAX$$QEAV<lambda_efdfa57d1f175319df784efa44bb7b81>@@AEAV<lambda_5f0a4c1567f8adc6734073e5d1e1b35c>@@$$QEAV<lambda_2e8a7d3640ea6ccb4c2413664c2db6fd>@@@Z 0000000180029fa8     libucrt:mbctype.obj
 0004:00000fb4       $pdata$?getSystemCP@@YAHH@Z 0000000180029fb4     libucrt:mbctype.obj
 0004:00000fc0       $pdata$?setSBCS@@YAXPEAU__crt_multibyte_data@@@Z 0000000180029fc0     libucrt:mbctype.obj
 0004:00000fcc       $pdata$?setSBUpLow@@YAXPEAU__crt_multibyte_data@@@Z 0000000180029fcc     libucrt:mbctype.obj
 0004:00000fd8       $pdata$?setmbcp_internal@@YAHH_NQEAU__acrt_ptd@@QEAPEAU__crt_multibyte_data@@@Z 0000000180029fd8     libucrt:mbctype.obj
 0004:00000fe4       $pdata$?update_thread_multibyte_data_internal@@YAPEAU__crt_multibyte_data@@QEAU__acrt_ptd@@QEAPEAU1@@Z 0000000180029fe4     libucrt:mbctype.obj
 0004:00000ff0       $pdata$__acrt_initialize_multibyte 0000000180029ff0     libucrt:mbctype.obj
 0004:00000ffc       $pdata$__acrt_update_thread_multibyte_data 0000000180029ffc     libucrt:mbctype.obj
 0004:00001008       $pdata$_setmbcp_nolock     000000018002a008     libucrt:mbctype.obj
 0004:00001014       $pdata$?x_ismbbtype_l@@YAHPEAU__crt_locale_pointers@@IHH@Z 000000018002a014     libucrt:ismbbyte.obj
 0004:00001020       $pdata$__acrt_initialize_command_line 000000018002a020     libucrt:argv_data.obj
 0004:0000102c       $pdata$__dcrt_get_narrow_environment_from_os 000000018002a02c     libucrt:get_environment_from_os.obj
 0004:00001038       $pdata$_recalloc_base      000000018002a038     libucrt:recalloc.obj
 0004:00001044       $pdata$?try_get_function@@YAPEAXW4function_id@?A0x391cf84c@@QEBDQEBW4module_id@2@2@Z 000000018002a044     libucrt:winapi_thunks.obj
 0004:00001050       $pdata$__acrt_AppPolicyGetProcessTerminationMethodInternal 000000018002a050     libucrt:winapi_thunks.obj
 0004:0000105c       $pdata$__acrt_AppPolicyGetShowDeveloperDiagnosticInternal 000000018002a05c     libucrt:winapi_thunks.obj
 0004:00001068       $pdata$__acrt_AppPolicyGetWindowingModelInternal 000000018002a068     libucrt:winapi_thunks.obj
 0004:00001074       $pdata$__acrt_FlsAlloc     000000018002a074     libucrt:winapi_thunks.obj
 0004:00001080       $pdata$__acrt_FlsFree      000000018002a080     libucrt:winapi_thunks.obj
 0004:0000108c       $pdata$__acrt_FlsGetValue  000000018002a08c     libucrt:winapi_thunks.obj
 0004:00001098       $pdata$__acrt_FlsSetValue  000000018002a098     libucrt:winapi_thunks.obj
 0004:000010a4       $pdata$__acrt_InitializeCriticalSectionEx 000000018002a0a4     libucrt:winapi_thunks.obj
 0004:000010b0       $pdata$__acrt_LCMapStringEx 000000018002a0b0     libucrt:winapi_thunks.obj
 0004:000010bc       $pdata$__acrt_LocaleNameToLCID 000000018002a0bc     libucrt:winapi_thunks.obj
 0004:000010c8       $pdata$__acrt_MessageBoxW  000000018002a0c8     libucrt:winapi_thunks.obj
 0004:000010d4       $pdata$__acrt_can_show_message_box 000000018002a0d4     libucrt:winapi_thunks.obj
 0004:000010e0       $pdata$__acrt_get_parent_window 000000018002a0e0     libucrt:winapi_thunks.obj
 0004:000010ec       $pdata$__acrt_initialize_winapi_thunks 000000018002a0ec     libucrt:winapi_thunks.obj
 0004:000010f8       $pdata$__acrt_is_interactive 000000018002a0f8     libucrt:winapi_thunks.obj
 0004:00001104       $pdata$__acrt_uninitialize_winapi_thunks 000000018002a104     libucrt:winapi_thunks.obj
 0004:00001110       $pdata$__acrt_initialize_heap 000000018002a110     libucrt:heap_handle.obj
 0004:0000111c       $pdata$__acrt_execute_initializers 000000018002a11c     libucrt:shared_initialization.obj
 0004:00001128       $pdata$__acrt_execute_uninitializers 000000018002a128     libucrt:shared_initialization.obj
 0004:00001134       $pdata$_isleadbyte_l       000000018002a134     libucrt:_wctype.obj
 0004:00001140       $pdata$?__acrt_LCMapStringA_stat@@YAHPEAU__crt_locale_pointers@@PEB_WKPEBDHPEADHHH@Z 000000018002a140     libucrt:lcmapstringa.obj
 0004:0000114c       $pdata$__acrt_LCMapStringA 000000018002a14c     libucrt:lcmapstringa.obj
 0004:00001158       $pdata$__acrt_free_locale  000000018002a158     libucrt:locale_refcounting.obj
 0004:00001164       $pdata$__acrt_locale_free_lc_time_if_unreferenced 000000018002a164     libucrt:locale_refcounting.obj
 0004:00001170       $pdata$__acrt_release_locale_ref 000000018002a170     libucrt:locale_refcounting.obj
 0004:0000117c       $pdata$__acrt_update_thread_locale_data 000000018002a17c     libucrt:locale_refcounting.obj
 0004:00001188       $pdata$_updatetlocinfoEx_nolock 000000018002a188     libucrt:locale_refcounting.obj
 0004:00001194       $pdata$__acrt_fp_strflt_to_string 000000018002a194     libucrt:_fptostr.obj
 0004:000011a0       $pdata$?divide@__crt_strtox@@YA_KAEAUbig_integer@1@AEBU21@@Z 000000018002a1a0     libucrt:cfout.obj
 0004:000011ac       $pdata$5$?divide@__crt_strtox@@YA_KAEAUbig_integer@1@AEBU21@@Z 000000018002a1ac     libucrt:cfout.obj
 0004:000011b8       $pdata$6$?divide@__crt_strtox@@YA_KAEAUbig_integer@1@AEBU21@@Z 000000018002a1b8     libucrt:cfout.obj
 0004:000011c4       $pdata$__acrt_fltout       000000018002a1c4     libucrt:cfout.obj
 0004:000011d0       $pdata$memcpy_s            000000018002a1d0     libucrt:cfout.obj
 0004:000011dc       $pdata$??$write_buffer_nolock@D@@YA_NDV__crt_stdio_stream@@@Z 000000018002a1dc     libucrt:_flsbuf.obj
 0004:000011e8       $pdata$??$write_buffer_nolock@_W@@YA_N_WV__crt_stdio_stream@@@Z 000000018002a1e8     libucrt:_flsbuf.obj
 0004:000011f4       $pdata$__acrt_stdio_flush_and_write_narrow_nolock 000000018002a1f4     libucrt:_flsbuf.obj
 0004:00001200       $pdata$__acrt_stdio_flush_and_write_wide_nolock 000000018002a200     libucrt:_flsbuf.obj
 0004:0000120c       $pdata$_fcloseall          000000018002a20c     libucrt:closeall.obj
 0004:00001218       $pdata$__acrt_stdio_free_buffer_nolock 000000018002a218     libucrt:_freebuf.obj
 0004:00001224       $pdata$_isatty             000000018002a224     libucrt:isatty.obj
 0004:00001230       $pdata$__acrt_locale_free_monetary 000000018002a230     libucrt:initmon.obj
 0004:0000123c       $pdata$__acrt_locale_free_numeric 000000018002a23c     libucrt:initnum.obj
 0004:00001248       $pdata$?free_crt_array_internal@@YAXQEAPEBX_K@Z 000000018002a248     libucrt:inittime.obj
 0004:00001254       $pdata$__acrt_locale_free_time 000000018002a254     libucrt:inittime.obj
 0004:00001260       $pdata$__acrt_GetStringTypeA 000000018002a260     libucrt:getstringtypea.obj
 0004:0000126c       $pdata$__acrt_lowio_create_handle_array 000000018002a26c     libucrt:osfinfo.obj
 0004:00001278       $pdata$__acrt_lowio_destroy_handle_array 000000018002a278     libucrt:osfinfo.obj
 0004:00001284       $pdata$__acrt_lowio_ensure_fh_exists 000000018002a284     libucrt:osfinfo.obj
 0004:00001290       $pdata$_free_osfhnd        000000018002a290     libucrt:osfinfo.obj
 0004:0000129c       $pdata$_get_osfhandle      000000018002a29c     libucrt:osfinfo.obj
 0004:000012a8       $pdata$??$?RV<lambda_a37b2b86f63e897a80ea819b0eb08c01>@@AEAV<lambda_38ce7e780aa69e748d6df282ebc68efe>@@V<lambda_99fb1378e971ab6e7edea83e3a7a83a2>@@@?$__crt_seh_guarded_call@H@@QEAAH$$QEAV<lambda_a37b2b86f63e897a80ea819b0eb08c01>@@AEAV<lambda_38ce7e780aa69e748d6df282ebc68efe>@@$$QEAV<lambda_99fb1378e971ab6e7edea83e3a7a83a2>@@@Z 000000018002a2a8     libucrt:commit.obj
 0004:000012b4       $pdata$_commit             000000018002a2b4     libucrt:commit.obj
 0004:000012c0       $pdata$?write_double_translated_ansi_nolock@@YA?AUwrite_result@?A0x17268360@@HQEBDI@Z 000000018002a2c0     libucrt:write.obj
 0004:000012cc       $pdata$?write_text_ansi_nolock@@YA?AUwrite_result@?A0x17268360@@HQEBDI@Z 000000018002a2cc     libucrt:write.obj
 0004:000012d8       $pdata$?write_text_utf16le_nolock@@YA?AUwrite_result@?A0x17268360@@HQEBDI@Z 000000018002a2d8     libucrt:write.obj
 0004:000012e4       $pdata$?write_text_utf8_nolock@@YA?AUwrite_result@?A0x17268360@@HQEBDI@Z 000000018002a2e4     libucrt:write.obj
 0004:000012f0       $pdata$_write              000000018002a2f0     libucrt:write.obj
 0004:000012fc       $pdata$_write_nolock       000000018002a2fc     libucrt:write.obj
 0004:00001308       $pdata$qsort               000000018002a308     libucrt:qsort.obj
 0004:00001314       $pdata$4$qsort             000000018002a314     libucrt:qsort.obj
 0004:00001320       $pdata$5$qsort             000000018002a320     libucrt:qsort.obj
 0004:0000132c       $pdata$strncpy_s           000000018002a32c     libucrt:strncpy_s.obj
 0004:00001338       $pdata$fallbackMethod      000000018002a338     libucrt:strpbrk.obj
 0004:00001344       $pdata$strpbrk             000000018002a344     libucrt:strpbrk.obj
 0004:00001350       $pdata$_mbsdec_l           000000018002a350     libucrt:mbsdec.obj
 0004:0000135c       $pdata$?initialize_multibyte@@YAHXZ 000000018002a35c     libucrt:multibyte_initializer.obj
 0004:00001368       $pdata$_msize_base         000000018002a368     libucrt:msize.obj
 0004:00001374       $pdata$_realloc_base       000000018002a374     libucrt:realloc_base.obj
 0004:00001380       $pdata$?GetTableIndexFromLocaleName@@YAHPEB_W@Z 000000018002a380     libucrt:lcidtoname_downlevel.obj
 0004:0000138c       $pdata$__acrt_DownlevelLocaleNameToLCID 000000018002a38c     libucrt:lcidtoname_downlevel.obj
 0004:00001398       $pdata$fegetenv            000000018002a398     libucrt:fegetenv.obj
 0004:000013a4       $pdata$fesetenv            000000018002a3a4     libucrt:fesetenv.obj
 0004:000013b0       $pdata$feholdexcept        000000018002a3b0     libucrt:feholdexcept.obj
 0004:000013c8       $pdata$??$common_lseek@_J@@YA_JH_JH@Z 000000018002a3c8     libucrt:lseek.obj
 0004:000013d4       $pdata$??$common_lseek_nolock@_J@@YA_JH_JH@Z 000000018002a3d4     libucrt:lseek.obj
 0004:000013e0       $pdata$__acrt_stdio_allocate_buffer_nolock 000000018002a3e0     libucrt:_getbuf.obj
 0004:000013ec       $pdata$_fclose_nolock      000000018002a3ec     libucrt:fclose.obj
 0004:000013f8       $pdata$fclose              000000018002a3f8     libucrt:fclose.obj
 0004:00001404       $pdata$_putwch_nolock      000000018002a404     libucrt:putwch.obj
 0004:00001410       $pdata$__acrt_fenv_set_control 000000018002a410     libucrt:_fenvutils.obj
 0004:0000141c       $pdata$_clearfp            000000018002a41c     libucrt:ieee.obj
 0004:00001428       $pdata$_call_matherr       000000018002a428     libucrt:libm_error.obj
 0004:00001434       $pdata$_exception_enabled  000000018002a434     libucrt:libm_error.obj
 0004:00001440       $pdata$_handle_error       000000018002a440     libucrt:libm_error.obj
 0004:0000144c       $pdata$__acrt_initialize_fma3 000000018002a44c     libucrt:fma3_available.obj
 0004:00001458       $pdata$_log10_special      000000018002a458     libucrt:log_special.obj
 0004:00001464       $pdata$_log_special_common 000000018002a464     libucrt:log_special.obj
 0004:00001470       $pdata$??$?RV<lambda_751a882b2c74d4b022dec766aa51a29a>@@AEAV<lambda_628dfdc04ba53c8bfc02c9951375f3f5>@@V<lambda_f6c7be5f7998530c34de24c7437d6b54>@@@?$__crt_seh_guarded_call@H@@QEAAH$$QEAV<lambda_751a882b2c74d4b022dec766aa51a29a>@@AEAV<lambda_628dfdc04ba53c8bfc02c9951375f3f5>@@$$QEAV<lambda_f6c7be5f7998530c34de24c7437d6b54>@@@Z 000000018002a470     libucrt:close.obj
 0004:0000147c       $pdata$_close              000000018002a47c     libucrt:close.obj
 0004:00001488       $pdata$_close_nolock       000000018002a488     libucrt:close.obj
 0004:00001494       $pdata$__dcrt_lowio_ensure_console_output_initialized 000000018002a494     libucrt:initcon.obj
 0004:000014a0       $pdata$__dcrt_terminate_console_output 000000018002a4a0     libucrt:initcon.obj
 0004:000014ac       $pdata$__dcrt_write_console_w 000000018002a4ac     libucrt:initcon.obj
 0004:000014c4       $pdata$_raise_exc          000000018002a4c4     libucrt:fpexcept.obj
 0004:000014d0       $pdata$_raise_exc_ex       000000018002a4d0     libucrt:fpexcept.obj
 0004:000014dc       $pdata$_set_errno_from_matherr 000000018002a4dc     libucrt:fpexcept.obj
 0004:000014e8       $pdata$_clrfp              000000018002a4e8     libucrt:fpctrl.obj
 0004:000014f4       $pdata$_ctrlfp             000000018002a4f4     libucrt:fpctrl.obj
 0004:00001500       $pdata$_set_statfp         000000018002a500     libucrt:fpctrl.obj
 0004:0000150c       $pdata$_statfp             000000018002a50c     libucrt:fpctrl.obj
 0004:00001518       $pdata$?DloadAcquireSectionWriteAccess@@YAXXZ 000000018002a518     DelayImp:delayhlp.obj
 0004:00001524       $pdata$?DloadGetSRWLockFunctionPointers@@YAEXZ 000000018002a524     DelayImp:delayhlp.obj
 0004:00001530       $pdata$?DloadMakePermanentImageCommit@@YAXPEAX_K@Z 000000018002a530     DelayImp:delayhlp.obj
 0004:0000153c       $pdata$?DloadObtainSection@@YAPEAXPEAK0@Z 000000018002a53c     DelayImp:delayhlp.obj
 0004:00001548       $pdata$?DloadProtectSection@@YAXKPEAK@Z 000000018002a548     DelayImp:delayhlp.obj
 0004:00001554       $pdata$?DloadReleaseSectionWriteAccess@@YAXXZ 000000018002a554     DelayImp:delayhlp.obj
 0004:00001560       $pdata$__delayLoadHelper2  000000018002a560     DelayImp:delayhlp.obj
 0004:0000156c       $pdata$_IsNonwritableInCurrentImage 000000018002a56c     LIBCMT:pesect.obj
 0004:00001578       $pdata$__GSHandlerCheck    000000018002a578     LIBCMT:gshandler.obj
 0004:00001584       $pdata$__GSHandlerCheckCommon 000000018002a584     LIBCMT:gshandler.obj
 0004:0000159c       $pdata$strrchr             000000018002a59c     libvcruntime:strrchr.obj
 0004:000015c0       $pdata$?fin$0@?0??dllmain_crt_process_attach@@YAHQEAUHINSTANCE__@@QEAX@Z@4HA 000000018002a5c0     LIBCMT:dll_dllmain.obj
 0004:000015cc       $pdata$?fin$0@?0??dllmain_crt_process_detach@@YAH_N@Z@4HA 000000018002a5cc     LIBCMT:dll_dllmain.obj
 0004:000015d8       $pdata$?filt$0@?0??dllmain_dispatch@@YAHQEAUHINSTANCE__@@KQEAX@Z@4HA 000000018002a5d8     LIBCMT:dll_dllmain.obj
 0004:000015e4       $pdata$__scrt_is_nonwritable_in_current_image$filt$0 000000018002a5e4     LIBCMT:utility.obj
 0004:000015f0       $pdata$__DestructExceptionObject$filt$0 000000018002a5f0     libvcruntime:ehhelpers.obj
 0004:000015fc       $pdata$?fin$0@?0???$?RV<lambda_84ec643ea9557e2f7dc01bb0e9624395>@@AEAV<lambda_ca71763b3c0644891230e4f79ea54fa6>@@V<lambda_439a761618c59b0600e24586724d733b>@@@?$__crt_seh_guarded_call@H@@QEAAH$$QEAV<lambda_84ec643ea9557e2f7dc01bb0e9624395>@@AEAV<lambda_ca71763b3c0644891230e4f79ea54fa6>@@$$QEAV<lambda_439a761618c59b0600e24586724d733b>@@@Z@4HA 000000018002a5fc     libucrt:setvbuf.obj
 0004:000015fc       $pdata$?fin$0@?0???$?RV<lambda_0d412022a4b28cc8a401ea49574e8ae6>@@AEAV<lambda_a775ed57af18ba8e4d5dc780aa9068fe>@@V<lambda_975a71a6baa488a08f4e15f6b0339b9e>@@@?$__crt_seh_guarded_call@H@@QEAAH$$QEAV<lambda_0d412022a4b28cc8a401ea49574e8ae6>@@AEAV<lambda_a775ed57af18ba8e4d5dc780aa9068fe>@@$$QEAV<lambda_975a71a6baa488a08f4e15f6b0339b9e>@@@Z@4HA 000000018002a5fc     libucrt:output.obj
 0004:000015fc       $pdata$?fin$0@?0???$?RV<lambda_842d9ff0dc9ef11c61343bbaebe7f885>@@AEAV<lambda_c5860995281e5c4ce005b3de8f5874ee>@@V<lambda_d90129c13df834fdcbf8d2b88dafcf2d>@@@?$__crt_seh_guarded_call@X@@QEAAX$$QEAV<lambda_842d9ff0dc9ef11c61343bbaebe7f885>@@AEAV<lambda_c5860995281e5c4ce005b3de8f5874ee>@@$$QEAV<lambda_d90129c13df834fdcbf8d2b88dafcf2d>@@@Z@4HA 000000018002a5fc     libucrt:fflush.obj
 0004:000015fc       $pdata$?fin$0@?0???$?RV<lambda_c376a267cfb53b6959b3b692ec76b120>@@AEAV<lambda_9a32fed5bf61b6b509b2d3f6003082a1>@@V<lambda_572fbb9fa0ab338edf41edfd4b5fcc8d>@@@?$__crt_seh_guarded_call@H@@QEAAH$$QEAV<lambda_c376a267cfb53b6959b3b692ec76b120>@@AEAV<lambda_9a32fed5bf61b6b509b2d3f6003082a1>@@$$QEAV<lambda_572fbb9fa0ab338edf41edfd4b5fcc8d>@@@Z@4HA 000000018002a5fc     libucrt:fflush.obj
 0004:00001608       $pdata$_query_new_handler$fin$0 000000018002a608     libucrt:new_handler.obj
 0004:00001614       $pdata$?fin$0@?0???$?RV<lambda_7777bce6b2f8c936911f934f8298dc43>@@AEAV<lambda_f03950bc5685219e0bcd2087efbe011e>@@V<lambda_3883c3dff614d5e0c5f61bb1ac94921c>@@@?$__crt_seh_guarded_call@H@@QEAAH$$QEAV<lambda_7777bce6b2f8c936911f934f8298dc43>@@AEAV<lambda_f03950bc5685219e0bcd2087efbe011e>@@$$QEAV<lambda_3883c3dff614d5e0c5f61bb1ac94921c>@@@Z@4HA 000000018002a614     libucrt:onexit.obj
 0004:00001614       $pdata$?fin$0@?0???$?RV<lambda_f2e299630e499de9f9a165e60fcd3db5>@@AEAV<lambda_2ae9d31cdba2644fcbeaf08da7c24588>@@V<lambda_40d01ff24d0e7b3814fdbdcee8eab3c7>@@@?$__crt_seh_guarded_call@X@@QEAAX$$QEAV<lambda_f2e299630e499de9f9a165e60fcd3db5>@@AEAV<lambda_2ae9d31cdba2644fcbeaf08da7c24588>@@$$QEAV<lambda_40d01ff24d0e7b3814fdbdcee8eab3c7>@@@Z@4HA 000000018002a614     libucrt:per_thread_data.obj
 0004:00001614       $pdata$?fin$0@?0???$?RV<lambda_0ae27a3a962d80f24befdcbee591983d>@@AEAV<lambda_8d0ee55de4b1038c4002e0adecdf1839>@@V<lambda_dc504788e8f1664fe9b84e20bfb512f2>@@@?$__crt_seh_guarded_call@X@@QEAAX$$QEAV<lambda_0ae27a3a962d80f24befdcbee591983d>@@AEAV<lambda_8d0ee55de4b1038c4002e0adecdf1839>@@$$QEAV<lambda_dc504788e8f1664fe9b84e20bfb512f2>@@@Z@4HA 000000018002a614     libucrt:per_thread_data.obj
 0004:00001614       $pdata$?fin$0@?0???$?RV<lambda_efdfa57d1f175319df784efa44bb7b81>@@AEAV<lambda_5f0a4c1567f8adc6734073e5d1e1b35c>@@V<lambda_2e8a7d3640ea6ccb4c2413664c2db6fd>@@@?$__crt_seh_guarded_call@X@@QEAAX$$QEAV<lambda_efdfa57d1f175319df784efa44bb7b81>@@AEAV<lambda_5f0a4c1567f8adc6734073e5d1e1b35c>@@$$QEAV<lambda_2e8a7d3640ea6ccb4c2413664c2db6fd>@@@Z@4HA 000000018002a614     libucrt:mbctype.obj
 0004:00001614       $pdata$?fin$0@?0???$?RV<lambda_d80eeec6fff315bfe5c115232f3240e3>@@AEAV<lambda_6e4b09c48022b2350581041d5f6b0c4c>@@V<lambda_2358e3775559c9db80273638284d5e45>@@@?$__crt_seh_guarded_call@X@@QEAAX$$QEAV<lambda_d80eeec6fff315bfe5c115232f3240e3>@@AEAV<lambda_6e4b09c48022b2350581041d5f6b0c4c>@@$$QEAV<lambda_2358e3775559c9db80273638284d5e45>@@@Z@4HA 000000018002a614     libucrt:exit.obj
 0004:00001614       $pdata$?fin$0@?0???$?RV<lambda_450d765d439847d4c735a33c368b5fc0>@@AEAV<lambda_44731a7d0e6d81c3e6aa82d741081786>@@V<lambda_601a2a7da3b7a96e9554ac7215c4b07c>@@@?$__crt_seh_guarded_call@P6AXH@Z@@QEAAP6AXH@Z$$QEAV<lambda_450d765d439847d4c735a33c368b5fc0>@@AEAV<lambda_44731a7d0e6d81c3e6aa82d741081786>@@$$QEAV<lambda_601a2a7da3b7a96e9554ac7215c4b07c>@@@Z@4HA 000000018002a614     libucrt:signal.obj
 0004:00001614       $pdata$?fin$0@?0???$?RV<lambda_aa87e3671a710a21b5dc78c0bdf72e11>@@AEAV<lambda_92619d2358a28f41a33ba319515a20b9>@@V<lambda_6992ecaafeb10aed2b74cb1fae11a551>@@@?$__crt_seh_guarded_call@X@@QEAAX$$QEAV<lambda_aa87e3671a710a21b5dc78c0bdf72e11>@@AEAV<lambda_92619d2358a28f41a33ba319515a20b9>@@$$QEAV<lambda_6992ecaafeb10aed2b74cb1fae11a551>@@@Z@4HA 000000018002a614     libucrt:per_thread_data.obj
 0004:00001614       $pdata$?fin$0@?0???$?RV<lambda_2d41944a1d46af3157314b8a01080d33>@@AEAV<lambda_8f455de75cd7d7f24b4096f044d8b9e6>@@V<lambda_aa500f224e6afead328df44964fe2772>@@@?$__crt_seh_guarded_call@X@@QEAAX$$QEAV<lambda_2d41944a1d46af3157314b8a01080d33>@@AEAV<lambda_8f455de75cd7d7f24b4096f044d8b9e6>@@$$QEAV<lambda_aa500f224e6afead328df44964fe2772>@@@Z@4HA 000000018002a614     libucrt:per_thread_data.obj
 0004:00001620       $pdata$?filt$0@?0???R<lambda_6e4b09c48022b2350581041d5f6b0c4c>@@QEBA@XZ@4HA 000000018002a620     libucrt:exit.obj
 0004:0000162c       $pdata$?fin$0@?0???$?RV<lambda_410d79af7f07d98d83a3f525b3859a53>@@AEAV<lambda_3e16ef9562a7dcce91392c22ab16ea36>@@V<lambda_38119f0e861e05405d8a144b9b982f0a>@@@?$__crt_seh_guarded_call@X@@QEAAX$$QEAV<lambda_410d79af7f07d98d83a3f525b3859a53>@@AEAV<lambda_3e16ef9562a7dcce91392c22ab16ea36>@@$$QEAV<lambda_38119f0e861e05405d8a144b9b982f0a>@@@Z@4HA 000000018002a62c     libucrt:wsetlocale.obj
 0004:00001638       $pdata$__acrt_initialize_lowio$fin$0 000000018002a638     libucrt:ioinit.obj
 0004:00001638       $pdata$__acrt_lowio_ensure_fh_exists$fin$0 000000018002a638     libucrt:osfinfo.obj
 0004:00001644       $pdata$?fin$0@?0???$?RV<lambda_886d6c58226a84441f68b9f2b8217b83>@@AEAV<lambda_ab61a845afdef5b7c387490eaf3616ee>@@V<lambda_f7f22ab5edc0698d5f6905b0d3f44752>@@@?$__crt_seh_guarded_call@X@@QEAAX$$QEAV<lambda_886d6c58226a84441f68b9f2b8217b83>@@AEAV<lambda_ab61a845afdef5b7c387490eaf3616ee>@@$$QEAV<lambda_f7f22ab5edc0698d5f6905b0d3f44752>@@@Z@4HA 000000018002a644     libucrt:fflush.obj
 0004:00001650       $pdata$raise$fin$0         000000018002a650     libucrt:signal.obj
 0004:0000165c       $pdata$?fin$0@?0??update_thread_multibyte_data_internal@@YAPEAU__crt_multibyte_data@@QEAU__acrt_ptd@@QEAPEAU1@@Z@4HA 000000018002a65c     libucrt:mbctype.obj
 0004:00001668       $pdata$__acrt_update_thread_locale_data$fin$0 000000018002a668     libucrt:locale_refcounting.obj
 0004:00001674       $pdata$_fcloseall$fin$0    000000018002a674     libucrt:closeall.obj
 0004:00001680       $pdata$?fin$0@?0???$?RV<lambda_a37b2b86f63e897a80ea819b0eb08c01>@@AEAV<lambda_38ce7e780aa69e748d6df282ebc68efe>@@V<lambda_99fb1378e971ab6e7edea83e3a7a83a2>@@@?$__crt_seh_guarded_call@H@@QEAAH$$QEAV<lambda_a37b2b86f63e897a80ea819b0eb08c01>@@AEAV<lambda_38ce7e780aa69e748d6df282ebc68efe>@@$$QEAV<lambda_99fb1378e971ab6e7edea83e3a7a83a2>@@@Z@4HA 000000018002a680     libucrt:commit.obj
 0004:00001680       $pdata$?fin$0@?0???$?RV<lambda_751a882b2c74d4b022dec766aa51a29a>@@AEAV<lambda_628dfdc04ba53c8bfc02c9951375f3f5>@@V<lambda_f6c7be5f7998530c34de24c7437d6b54>@@@?$__crt_seh_guarded_call@H@@QEAAH$$QEAV<lambda_751a882b2c74d4b022dec766aa51a29a>@@AEAV<lambda_628dfdc04ba53c8bfc02c9951375f3f5>@@$$QEAV<lambda_f6c7be5f7998530c34de24c7437d6b54>@@@Z@4HA 000000018002a680     libucrt:close.obj
 0004:0000168c       $pdata$?fin$0@?0???$common_lseek@_J@@YA_JH_JH@Z@4HA 000000018002a68c     libucrt:lseek.obj
 0004:0000168c       $pdata$_write$fin$0        000000018002a68c     libucrt:write.obj
 0004:00001698       $pdata$fclose$fin$0        000000018002a698     libucrt:fclose.obj
 0004:000016a4       $pdata$_ctrlfp$filt$0      000000018002a6a4     libucrt:fpctrl.obj
 0004:000016b0       $pdata$_IsNonwritableInCurrentImage$filt$0 000000018002a6b0     LIBCMT:pesect.obj
 0005:00000060       $R000000                   000000018002b060     * linker generated manifest res *

 Exports

  ordinal    name

        1    _register_bcrypt_lib_
